
Image.out:     file format elf32-littlearm


Disassembly of section .text:

00000000 <g_pfnVectors>:

const piniod_t __input_pins [] = INPUT_PIN_LIST;

void pin_sensor_init () { __pinsen_setedge_irq; }

void pin_sensor_read (word st, const byte *junk, address val) {
       0:	20005000 	andcs	r5, r0, r0

	const piniod_t *p;
	word i;
	byte v;

	if (val == NULL) {
       4:	000029a9 	andeq	r2, r0, r9, lsr #19
		// Called to issue a wait request
		if (st == WNONE)
       8:	000029a3 	andeq	r2, r0, r3, lsr #19
       c:	000029a5 	andeq	r2, r0, r5, lsr #19
			// Make sure this is not WNONE
			return;
		cli;
		__pinsen_clear_and_enable;
      10:	000029a7 	andeq	r2, r0, r7, lsr #19
      14:	000029a7 	andeq	r2, r0, r7, lsr #19
		when (&__input_pins, st);
      18:	000029a7 	andeq	r2, r0, r7, lsr #19
	...
	}

	*val = 0;
	for (i = 0, p = __input_pins;
	    	    i < sizeof (__input_pins) / sizeof (piniod_t); i++, p++)
		*val |= __port_in_value (p) << i;
      2c:	000029a7 	andeq	r2, r0, r7, lsr #19
    ASSERT( dioNumberLegal( dioNumber ));

    //
    // Return the input value from the specified DIO.
    //
    return (( HWREG( GPIO_BASE + GPIO_O_DIN31_0 ) >> dioNumber ) & 1 );
      30:	000029a7 	andeq	r2, r0, r7, lsr #19
      34:	00000000 	andeq	r0, r0, r0
      38:	000029a7 	andeq	r2, r0, r7, lsr #19
      3c:	000029a7 	andeq	r2, r0, r7, lsr #19
      40:	000016c5 	andeq	r1, r0, r5, asr #13
	for (i = 0, p = __input_pins;
      44:	000029a7 	andeq	r2, r0, r7, lsr #19
      48:	000029a7 	andeq	r2, r0, r7, lsr #19
      4c:	000029a7 	andeq	r2, r0, r7, lsr #19
}
      50:	0000129d 	muleq	r0, sp, r2
      54:	00001585 	andeq	r1, r0, r5, lsl #11
	if (!button_still_pressed (__button_list [pbutton]))
		goto Done;

	if (BUTTON_REPEAT (__button_list [pbutton])) {
		// Wait for repeat
		delay (BUTTON_REPEAT_DELAY, BU_LOOP);
      58:	000029a7 	andeq	r2, r0, r7, lsr #19
		release;
      5c:	000029a7 	andeq	r2, r0, r7, lsr #19
	    pbutton++) {
      60:	000029a7 	andeq	r2, r0, r7, lsr #19
	if (!button_still_pressed (__button_list [pbutton]))
      64:	000033f9 	strdeq	r3, [r0], -r9
      68:	000029a7 	andeq	r2, r0, r7, lsr #19
      6c:	000029a7 	andeq	r2, r0, r7, lsr #19
      70:	000029a7 	andeq	r2, r0, r7, lsr #19
      74:	000029a7 	andeq	r2, r0, r7, lsr #19
      78:	000029a7 	andeq	r2, r0, r7, lsr #19
	if (BUTTON_REPEAT (__button_list [pbutton])) {
      7c:	000029a7 	andeq	r2, r0, r7, lsr #19
      80:	000029a7 	andeq	r2, r0, r7, lsr #19
		delay (BUTTON_REPEAT_DELAY, BU_LOOP);
      84:	000029a7 	andeq	r2, r0, r7, lsr #19
      88:	000029a7 	andeq	r2, r0, r7, lsr #19
	} else
		goto Debounce;

  entry (BU_LOOP)

	if (!button_still_pressed (__button_list [pbutton]))
      8c:	000029a7 	andeq	r2, r0, r7, lsr #19
      90:	000029a7 	andeq	r2, r0, r7, lsr #19
      94:	000029a7 	andeq	r2, r0, r7, lsr #19
      98:	000029a7 	andeq	r2, r0, r7, lsr #19
      9c:	000029a7 	andeq	r2, r0, r7, lsr #19
      a0:	000029a7 	andeq	r2, r0, r7, lsr #19
		goto Done;

	if (baction == NULL)
      a4:	000029a7 	andeq	r2, r0, r7, lsr #19
      a8:	000029a7 	andeq	r2, r0, r7, lsr #19
		goto Term;

	(*baction) (pbutton);

	delay (BUTTON_REPEAT_INTERVAL, BU_LOOP);
      ac:	000029a7 	andeq	r2, r0, r7, lsr #19

endthread
      b0:	000029a7 	andeq	r2, r0, r7, lsr #19
	delay (BUTTON_REPEAT_INTERVAL, BU_LOOP);
      b4:	000029a7 	andeq	r2, r0, r7, lsr #19
      b8:	000029a7 	andeq	r2, r0, r7, lsr #19
endthread
      bc:	000029a7 	andeq	r2, r0, r7, lsr #19
      c0:	000029a7 	andeq	r2, r0, r7, lsr #19
      c4:	000029a7 	andeq	r2, r0, r7, lsr #19

000000c8 <Create>:
      c8:	b5f8      	push	{r3, r4, r5, r6, r7, lr}
      ca:	2807      	cmp	r0, #7
      cc:	f200 80cd 	bhi.w	26a <_Min_Stack_Size+0x16a>
      d0:	e8df f000 	tbb	[pc, r0]
};
//database storage for up to 40 records
struct Record database[40];

//temp for testing
fsm Create{
      d4:	352e0b04 	strcc	r0, [lr, #-2820]!	; 0xfffff4fc
      d8:	b19e8845 	orrslt	r8, lr, r5, asr #16
	int i;
	char temp_char;
	

	state ASK_DEST:
		ser_out(ASK_DEST, "\r\nDestination node ID: ");
      dc:	2000      	movs	r0, #0
      de:	4965      	ldr	r1, [pc, #404]	; (274 <_Min_Stack_Size+0x174>)
      e0:	f002 fd3e 	bl	2b60 <ser_out>
		proceed READ_DEST;
      e4:	2001      	movs	r0, #1
      e6:	f001 fea1 	bl	1e2c <proceed>


	state READ_DEST:
		ser_inf(READ_DEST, "%d", &dest_id);
      ea:	4c63      	ldr	r4, [pc, #396]	; (278 <_Min_Stack_Size+0x178>)
      ec:	4963      	ldr	r1, [pc, #396]	; (27c <_Min_Stack_Size+0x17c>)
      ee:	4622      	mov	r2, r4
      f0:	2001      	movs	r0, #1
      f2:	f002 fdd1 	bl	2c98 <ser_inf>
		ser_outf(READ_DEST, "%d", dest_id);
      f6:	2001      	movs	r0, #1
      f8:	6822      	ldr	r2, [r4, #0]
      fa:	4960      	ldr	r1, [pc, #384]	; (27c <_Min_Stack_Size+0x17c>)
      fc:	f002 fda2 	bl	2c44 <ser_outf>

		if (dest_id < 1|| dest_id > 25){
     100:	6823      	ldr	r3, [r4, #0]
     102:	3b01      	subs	r3, #1
     104:	2b18      	cmp	r3, #24
     106:	d909      	bls.n	11c <_Min_Stack_Size+0x1c>
			ser_out(READ_DEST, "\r\nInvalid destination node ID");
     108:	2001      	movs	r0, #1
     10a:	495d      	ldr	r1, [pc, #372]	; (280 <_Min_Stack_Size+0x180>)
     10c:	f002 fd28 	bl	2b60 <ser_out>
			create_finished = 1;
     110:	2201      	movs	r2, #1
     112:	4b5c      	ldr	r3, [pc, #368]	; (284 <_Min_Stack_Size+0x184>)
			finish;
     114:	2000      	movs	r0, #0
			create_finished = 1;
     116:	601a      	str	r2, [r3, #0]
			finish;
     118:	f001 ffce 	bl	20b8 <kill>
		}

		for (i = 0; i < 20; i++){
     11c:	2315      	movs	r3, #21
			record_data[i] = '\0';
     11e:	2100      	movs	r1, #0
     120:	4a59      	ldr	r2, [pc, #356]	; (288 <_Min_Stack_Size+0x188>)
		for (i = 0; i < 20; i++){
     122:	3b01      	subs	r3, #1
     124:	d16b      	bne.n	1fe <_Min_Stack_Size+0xfe>
		}


		i = 0;
     126:	4a59      	ldr	r2, [pc, #356]	; (28c <_Min_Stack_Size+0x18c>)

		proceed ASK_RECORD;
     128:	2002      	movs	r0, #2
		i = 0;
     12a:	6013      	str	r3, [r2, #0]
		proceed ASK_RECORD;
     12c:	f001 fe7e 	bl	1e2c <proceed>

	state ASK_RECORD:
		ser_out(ASK_RECORD, "\r\nRecord string: ");
     130:	2002      	movs	r0, #2
     132:	4957      	ldr	r1, [pc, #348]	; (290 <_Min_Stack_Size+0x190>)
     134:	f002 fd14 	bl	2b60 <ser_out>
		proceed READ_RECORD;
     138:	2003      	movs	r0, #3
     13a:	f001 fe77 	bl	1e2c <proceed>

	state READ_RECORD:
		ser_in(READ_RECORD, record_data, 20);
     13e:	4c52      	ldr	r4, [pc, #328]	; (288 <_Min_Stack_Size+0x188>)
     140:	2214      	movs	r2, #20
     142:	4621      	mov	r1, r4
     144:	2003      	movs	r0, #3
     146:	f002 fd41 	bl	2bcc <ser_in>
		record_data[19] = '\0';
     14a:	2300      	movs	r3, #0
		ser_outf(READ_RECORD, "%s\r\n", record_data);
     14c:	4622      	mov	r2, r4
     14e:	2003      	movs	r0, #3
     150:	4950      	ldr	r1, [pc, #320]	; (294 <_Min_Stack_Size+0x194>)
		record_data[19] = '\0';
     152:	74e3      	strb	r3, [r4, #19]
		ser_outf(READ_RECORD, "%s\r\n", record_data);
     154:	f002 fd76 	bl	2c44 <ser_outf>
		proceed SEND_CREATE;
     158:	2004      	movs	r0, #4
     15a:	f001 fe67 	bl	1e2c <proceed>

	 state SEND_CREATE:
		
        pending_request_num = (byte)rnd();
        pending_destination_id = (byte)dest_id;
        pending_type = MSG_TYPE_CREATE;
     15e:	2702      	movs	r7, #2
        pending_request_num = (byte)rnd();
     160:	f002 f8ee 	bl	2340 <lrnd>
        pending_active = 1;
     164:	2201      	movs	r2, #1

        reply_received = 0;
     166:	2400      	movs	r4, #0
        pending_destination_id = (byte)dest_id;
     168:	4b43      	ldr	r3, [pc, #268]	; (278 <_Min_Stack_Size+0x178>)
     16a:	4d4b      	ldr	r5, [pc, #300]	; (298 <_Min_Stack_Size+0x198>)
     16c:	681b      	ldr	r3, [r3, #0]
        pending_request_num = (byte)rnd();
     16e:	4e4b      	ldr	r6, [pc, #300]	; (29c <_Min_Stack_Size+0x19c>)
        pending_destination_id = (byte)dest_id;
     170:	702b      	strb	r3, [r5, #0]
        pending_type = MSG_TYPE_CREATE;
     172:	4b4b      	ldr	r3, [pc, #300]	; (2a0 <_Min_Stack_Size+0x1a0>)
        reply_status = 0;

        packet = tcv_wnp(SEND_CREATE, sfd, 28);
     174:	494b      	ldr	r1, [pc, #300]	; (2a4 <_Min_Stack_Size+0x1a4>)
        pending_type = MSG_TYPE_CREATE;
     176:	701f      	strb	r7, [r3, #0]
        pending_active = 1;
     178:	4b4b      	ldr	r3, [pc, #300]	; (2a8 <_Min_Stack_Size+0x1a8>)
        pending_request_num = (byte)rnd();
     17a:	0c00      	lsrs	r0, r0, #16
        pending_active = 1;
     17c:	701a      	strb	r2, [r3, #0]
        reply_received = 0;
     17e:	4b4b      	ldr	r3, [pc, #300]	; (2ac <_Min_Stack_Size+0x1ac>)
        pending_request_num = (byte)rnd();
     180:	7030      	strb	r0, [r6, #0]
        reply_received = 0;
     182:	701c      	strb	r4, [r3, #0]
        reply_status = 0;
     184:	4b4a      	ldr	r3, [pc, #296]	; (2b0 <_Min_Stack_Size+0x1b0>)
        packet = tcv_wnp(SEND_CREATE, sfd, 28);
     186:	221c      	movs	r2, #28
     188:	6809      	ldr	r1, [r1, #0]
        reply_status = 0;
     18a:	701c      	strb	r4, [r3, #0]
        packet = tcv_wnp(SEND_CREATE, sfd, 28);
     18c:	2004      	movs	r0, #4
     18e:	4623      	mov	r3, r4
     190:	f002 fa5e 	bl	2650 <tcv_wnps>

        packet[0] = 0;
        p = (char *)(packet + 1);

        *p++ = (group_ID >> 8) & 0xFF;
     194:	4b47      	ldr	r3, [pc, #284]	; (2b4 <_Min_Stack_Size+0x1b4>)
        packet[0] = 0;
     196:	8004      	strh	r4, [r0, #0]
        *p++ = (group_ID >> 8) & 0xFF;
     198:	f9b3 2000 	ldrsh.w	r2, [r3]
     19c:	f993 3001 	ldrsb.w	r3, [r3, #1]
        *p++ = group_ID & 0xFF;
     1a0:	70c2      	strb	r2, [r0, #3]
        *p++ = (group_ID >> 8) & 0xFF;
     1a2:	7083      	strb	r3, [r0, #2]
        *p++ = MSG_TYPE_CREATE;
        *p++ = pending_request_num;
     1a4:	7833      	ldrb	r3, [r6, #0]
        *p++ = node_ID;
        *p++ = pending_destination_id;
     1a6:	4944      	ldr	r1, [pc, #272]	; (2b8 <_Min_Stack_Size+0x1b8>)
        *p++ = pending_request_num;
     1a8:	7143      	strb	r3, [r0, #5]
        *p++ = node_ID;
     1aa:	4b44      	ldr	r3, [pc, #272]	; (2bc <_Min_Stack_Size+0x1bc>)
        *p++ = pending_destination_id;
     1ac:	782a      	ldrb	r2, [r5, #0]
        *p++ = node_ID;
     1ae:	681b      	ldr	r3, [r3, #0]
        *p++ = MSG_TYPE_CREATE;
     1b0:	7107      	strb	r7, [r0, #4]
        *p++ = node_ID;
     1b2:	7183      	strb	r3, [r0, #6]
        *p++ = pending_destination_id;
     1b4:	f100 0308 	add.w	r3, r0, #8
     1b8:	600b      	str	r3, [r1, #0]
     1ba:	4603      	mov	r3, r0
     1bc:	f803 2f07 	strb.w	r2, [r3, #7]!

		// no status or index here so skip 'arg' field
        for (i = 0; i < 20; i++) {
     1c0:	4a32      	ldr	r2, [pc, #200]	; (28c <_Min_Stack_Size+0x18c>)
     1c2:	4d31      	ldr	r5, [pc, #196]	; (288 <_Min_Stack_Size+0x188>)
     1c4:	6014      	str	r4, [r2, #0]
     1c6:	f100 061b 	add.w	r6, r0, #27
     1ca:	42b3      	cmp	r3, r6
     1cc:	d11a      	bne.n	204 <_Min_Stack_Size+0x104>
     1ce:	f100 031c 	add.w	r3, r0, #28
     1d2:	b114      	cbz	r4, 1da <_Min_Stack_Size+0xda>
     1d4:	600b      	str	r3, [r1, #0]
     1d6:	2314      	movs	r3, #20
     1d8:	6013      	str	r3, [r2, #0]
            *p++ = record_data[i];
        }

        tcv_endp(packet);
     1da:	f002 f94f 	bl	247c <tcv_endp>
		// ser_out(SEND_CREATE, "\r\nPACKET SENT!!!\n");
		proceed WAIT_RESPONSE;
     1de:	2005      	movs	r0, #5
     1e0:	f001 fe24 	bl	1e2c <proceed>

    state WAIT_RESPONSE:
        if (reply_received) {
     1e4:	4b31      	ldr	r3, [pc, #196]	; (2ac <_Min_Stack_Size+0x1ac>)
     1e6:	781b      	ldrb	r3, [r3, #0]
     1e8:	b113      	cbz	r3, 1f0 <_Min_Stack_Size+0xf0>
            proceed GOT_RESPONSE;
     1ea:	2007      	movs	r0, #7
     1ec:	f001 fe1e 	bl	1e2c <proceed>
        }

        delay(3000, TIMEOUT);
     1f0:	2106      	movs	r1, #6
     1f2:	f640 30b8 	movw	r0, #3000	; 0xbb8
     1f6:	f001 fe69 	bl	1ecc <delay>
        release;
     1fa:	f001 fba7 	bl	194c <__pi_release>
			record_data[i] = '\0';
     1fe:	f802 1b01 	strb.w	r1, [r2], #1
		for (i = 0; i < 20; i++){
     202:	e78e      	b.n	122 <_Min_Stack_Size+0x22>
            *p++ = record_data[i];
     204:	f815 4b01 	ldrb.w	r4, [r5], #1
     208:	f803 4f01 	strb.w	r4, [r3, #1]!
     20c:	2401      	movs	r4, #1
     20e:	e7dc      	b.n	1ca <_Min_Stack_Size+0xca>

	// do we need this tho?
    state TIMEOUT:
        if (reply_received) {
     210:	4b26      	ldr	r3, [pc, #152]	; (2ac <_Min_Stack_Size+0x1ac>)
     212:	781b      	ldrb	r3, [r3, #0]
     214:	b113      	cbz	r3, 21c <_Min_Stack_Size+0x11c>
            proceed GOT_RESPONSE;
     216:	2007      	movs	r0, #7
     218:	f001 fe08 	bl	1e2c <proceed>
        }

        pending_active = 0;
     21c:	2400      	movs	r4, #0
     21e:	4b22      	ldr	r3, [pc, #136]	; (2a8 <_Min_Stack_Size+0x1a8>)
        ser_out(TIMEOUT, "\r\nFailed to reach the destination");
     220:	2006      	movs	r0, #6
     222:	4927      	ldr	r1, [pc, #156]	; (2c0 <_Min_Stack_Size+0x1c0>)
        pending_active = 0;
     224:	701c      	strb	r4, [r3, #0]
        ser_out(TIMEOUT, "\r\nFailed to reach the destination");
     226:	f002 fc9b 	bl	2b60 <ser_out>
		create_finished = 1;
     22a:	2201      	movs	r2, #1
     22c:	4b15      	ldr	r3, [pc, #84]	; (284 <_Min_Stack_Size+0x184>)
        finish;
     22e:	4620      	mov	r0, r4
		create_finished = 1;
     230:	601a      	str	r2, [r3, #0]
        finish;
     232:	f001 ff41 	bl	20b8 <kill>

    state GOT_RESPONSE:
        pending_active = 0;
     236:	2200      	movs	r2, #0
     238:	4b1b      	ldr	r3, [pc, #108]	; (2a8 <_Min_Stack_Size+0x1a8>)
     23a:	701a      	strb	r2, [r3, #0]

        if (reply_status == STATUS_SUCCESS) {
     23c:	4b1c      	ldr	r3, [pc, #112]	; (2b0 <_Min_Stack_Size+0x1b0>)
     23e:	781b      	ldrb	r3, [r3, #0]
     240:	2b01      	cmp	r3, #1
     242:	d10b      	bne.n	25c <_Min_Stack_Size+0x15c>
            ser_out(GOT_RESPONSE, "\r\n Data Saved");
     244:	2007      	movs	r0, #7
     246:	491f      	ldr	r1, [pc, #124]	; (2c4 <_Min_Stack_Size+0x1c4>)
     248:	f002 fc8a 	bl	2b60 <ser_out>
        } else {
            ser_outf(GOT_RESPONSE,
                     "\r\n The record can't be saved on node %d",
                     pending_destination_id);
        }
		create_finished = 1;
     24c:	2201      	movs	r2, #1
     24e:	4b0d      	ldr	r3, [pc, #52]	; (284 <_Min_Stack_Size+0x184>)
        finish;
     250:	2000      	movs	r0, #0
		create_finished = 1;
     252:	601a      	str	r2, [r3, #0]
}
     254:	e8bd 40f8 	ldmia.w	sp!, {r3, r4, r5, r6, r7, lr}
        finish;
     258:	f001 bf2e 	b.w	20b8 <kill>
            ser_outf(GOT_RESPONSE,
     25c:	4b0e      	ldr	r3, [pc, #56]	; (298 <_Min_Stack_Size+0x198>)
     25e:	491a      	ldr	r1, [pc, #104]	; (2c8 <_Min_Stack_Size+0x1c8>)
     260:	781a      	ldrb	r2, [r3, #0]
     262:	2007      	movs	r0, #7
     264:	f002 fcee 	bl	2c44 <ser_outf>
     268:	e7f0      	b.n	24c <_Min_Stack_Size+0x14c>
}
     26a:	e8bd 40f8 	ldmia.w	sp!, {r3, r4, r5, r6, r7, lr}
     26e:	f001 bd55 	b.w	1d1c <__pi_badstate>
     272:	bf00      	nop
     274:	00004f58 	andeq	r4, r0, r8, asr pc
     278:	20000584 	andcs	r0, r0, r4, lsl #11
     27c:	00005467 	andeq	r5, r0, r7, ror #8
     280:	00004f70 	andeq	r4, r0, r0, ror pc
     284:	20000110 	andcs	r0, r0, r0, lsl r1
     288:	200005f1 	strdcs	r0, [r0], -r1
     28c:	200005c4 	andcs	r0, r0, r4, asr #11
     290:	00004f8e 	andeq	r4, r0, lr, lsl #31
     294:	00005252 	andeq	r5, r0, r2, asr r2
     298:	200005e9 	andcs	r0, r0, r9, ror #11
     29c:	200005ea 	andcs	r0, r0, sl, ror #11
     2a0:	200005eb 	andcs	r0, r0, fp, ror #11
     2a4:	20000000 	andcs	r0, r0, r0
     2a8:	200005e8 	andcs	r0, r0, r8, ror #11
     2ac:	20000610 	andcs	r0, r0, r0, lsl r6
     2b0:	20000625 	andcs	r0, r0, r5, lsr #12
     2b4:	200005bc 			; <UNDEFINED> instruction: 0x200005bc
     2b8:	200005dc 	ldrdcs	r0, [r0], -ip
     2bc:	200005d4 	ldrdcs	r0, [r0], -r4
     2c0:	00004fa0 	andeq	r4, r0, r0, lsr #31
     2c4:	00004fc2 	andeq	r4, r0, r2, asr #31
     2c8:	00004fd0 	ldrdeq	r4, [r0], -r0

000002cc <Retrieve>:

fsm Retrieve {
     2cc:	b5f8      	push	{r3, r4, r5, r6, r7, lr}
     2ce:	2807      	cmp	r0, #7
     2d0:	f200 80b4 	bhi.w	43c <Retrieve+0x170>
     2d4:	e8df f000 	tbb	[pc, r0]
     2d8:	29220b04 	stmdbcs	r2!, {r2, r8, r9, fp}
     2dc:	9582753f 	strls	r7, [r2, #1343]	; 0x53f

    int dest_id;
    int record_index;

    state ASK_DEST:
        ser_out(ASK_DEST, "\r\nDestination node ID: ");
     2e0:	2000      	movs	r0, #0
     2e2:	4958      	ldr	r1, [pc, #352]	; (444 <Retrieve+0x178>)
     2e4:	f002 fc3c 	bl	2b60 <ser_out>
		proceed READ_DEST;
     2e8:	2001      	movs	r0, #1
     2ea:	f001 fd9f 	bl	1e2c <proceed>

    state READ_DEST:
        ser_inf(READ_DEST, "%d", &dest_id);
     2ee:	4c56      	ldr	r4, [pc, #344]	; (448 <Retrieve+0x17c>)
     2f0:	2001      	movs	r0, #1
     2f2:	4622      	mov	r2, r4
     2f4:	4955      	ldr	r1, [pc, #340]	; (44c <Retrieve+0x180>)
     2f6:	f002 fccf 	bl	2c98 <ser_inf>

		// invalid dest id
        if (dest_id < 1 || dest_id > 25) {
     2fa:	6823      	ldr	r3, [r4, #0]
     2fc:	3b01      	subs	r3, #1
     2fe:	2b18      	cmp	r3, #24
     300:	d909      	bls.n	316 <Retrieve+0x4a>
            ser_out(READ_DEST, "\r\nInvalid destination node ID");
     302:	2001      	movs	r0, #1
     304:	4952      	ldr	r1, [pc, #328]	; (450 <Retrieve+0x184>)
     306:	f002 fc2b 	bl	2b60 <ser_out>
			retrieve_finished = 1;
     30a:	2201      	movs	r2, #1
     30c:	4b51      	ldr	r3, [pc, #324]	; (454 <Retrieve+0x188>)
            finish;
     30e:	2000      	movs	r0, #0
			retrieve_finished = 1;
     310:	601a      	str	r2, [r3, #0]
            finish;
     312:	f001 fed1 	bl	20b8 <kill>
        }
		proceed ASK_INDEX;
     316:	2002      	movs	r0, #2
     318:	f001 fd88 	bl	1e2c <proceed>
		
    state ASK_INDEX:
        ser_out(ASK_INDEX, "\r\n\nEnter record index: ");
     31c:	2002      	movs	r0, #2
     31e:	494e      	ldr	r1, [pc, #312]	; (458 <Retrieve+0x18c>)
     320:	f002 fc1e 	bl	2b60 <ser_out>
		proceed READ_INDEX;
     324:	2003      	movs	r0, #3
     326:	f001 fd81 	bl	1e2c <proceed>

    state READ_INDEX:
        ser_inf(READ_INDEX, "%d", &record_index);
     32a:	4c4c      	ldr	r4, [pc, #304]	; (45c <Retrieve+0x190>)
     32c:	2003      	movs	r0, #3
     32e:	4622      	mov	r2, r4
     330:	4946      	ldr	r1, [pc, #280]	; (44c <Retrieve+0x180>)
     332:	f002 fcb1 	bl	2c98 <ser_inf>

        if (record_index < 0 || record_index >= 40) {
     336:	6823      	ldr	r3, [r4, #0]
     338:	2b27      	cmp	r3, #39	; 0x27
     33a:	d909      	bls.n	350 <Retrieve+0x84>
            ser_out(READ_INDEX, "\r\nInvalid record index");
     33c:	2003      	movs	r0, #3
     33e:	4948      	ldr	r1, [pc, #288]	; (460 <Retrieve+0x194>)
     340:	f002 fc0e 	bl	2b60 <ser_out>
			retrieve_finished = 1;
     344:	2201      	movs	r2, #1
     346:	4b43      	ldr	r3, [pc, #268]	; (454 <Retrieve+0x188>)
            finish;
     348:	2000      	movs	r0, #0
			retrieve_finished = 1;
     34a:	601a      	str	r2, [r3, #0]
            finish;
     34c:	f001 feb4 	bl	20b8 <kill>
        }
		proceed SEND_RETRIEVE;
     350:	2004      	movs	r0, #4
     352:	f001 fd6b 	bl	1e2c <proceed>

    state SEND_RETRIEVE:
        pending_request_num = (byte)rnd();
        pending_destination_id = (byte)dest_id;
        pending_type = MSG_TYPE_RETRIEVE;
     356:	2504      	movs	r5, #4
        pending_request_num = (byte)rnd();
     358:	f001 fff2 	bl	2340 <lrnd>
        pending_active = 1;
     35c:	2201      	movs	r2, #1

        reply_received = 0;
     35e:	2400      	movs	r4, #0
        pending_destination_id = (byte)dest_id;
     360:	4b39      	ldr	r3, [pc, #228]	; (448 <Retrieve+0x17c>)
     362:	4e40      	ldr	r6, [pc, #256]	; (464 <Retrieve+0x198>)
     364:	681b      	ldr	r3, [r3, #0]
        pending_request_num = (byte)rnd();
     366:	4f40      	ldr	r7, [pc, #256]	; (468 <Retrieve+0x19c>)
        pending_destination_id = (byte)dest_id;
     368:	7033      	strb	r3, [r6, #0]
        pending_type = MSG_TYPE_RETRIEVE;
     36a:	4b40      	ldr	r3, [pc, #256]	; (46c <Retrieve+0x1a0>)
        reply_status = 0;
        reply_record[0] = '\0';

        packet = tcv_wnp(SEND_RETRIEVE, sfd, 12);// 2 network, 7 body, 2 crc; body = 6 main + 1 record
     36c:	4940      	ldr	r1, [pc, #256]	; (470 <Retrieve+0x1a4>)
        pending_type = MSG_TYPE_RETRIEVE;
     36e:	701d      	strb	r5, [r3, #0]
        pending_active = 1;
     370:	4b40      	ldr	r3, [pc, #256]	; (474 <Retrieve+0x1a8>)
        pending_request_num = (byte)rnd();
     372:	0c00      	lsrs	r0, r0, #16
        pending_active = 1;
     374:	701a      	strb	r2, [r3, #0]
        reply_received = 0;
     376:	4b40      	ldr	r3, [pc, #256]	; (478 <Retrieve+0x1ac>)
        packet = tcv_wnp(SEND_RETRIEVE, sfd, 12);// 2 network, 7 body, 2 crc; body = 6 main + 1 record
     378:	220c      	movs	r2, #12
        reply_received = 0;
     37a:	701c      	strb	r4, [r3, #0]
        reply_status = 0;
     37c:	4b3f      	ldr	r3, [pc, #252]	; (47c <Retrieve+0x1b0>)
        packet = tcv_wnp(SEND_RETRIEVE, sfd, 12);// 2 network, 7 body, 2 crc; body = 6 main + 1 record
     37e:	6809      	ldr	r1, [r1, #0]
        reply_status = 0;
     380:	701c      	strb	r4, [r3, #0]
        reply_record[0] = '\0';
     382:	4b3f      	ldr	r3, [pc, #252]	; (480 <Retrieve+0x1b4>)
        pending_request_num = (byte)rnd();
     384:	7038      	strb	r0, [r7, #0]
        reply_record[0] = '\0';
     386:	701c      	strb	r4, [r3, #0]
        packet = tcv_wnp(SEND_RETRIEVE, sfd, 12);// 2 network, 7 body, 2 crc; body = 6 main + 1 record
     388:	4628      	mov	r0, r5
     38a:	4623      	mov	r3, r4
     38c:	f002 f960 	bl	2650 <tcv_wnps>

        packet[0] = 0;
        p = (char *)(packet + 1);

        *p++ = (group_ID >> 8) & 0xFF;
     390:	4b3c      	ldr	r3, [pc, #240]	; (484 <Retrieve+0x1b8>)
        packet[0] = 0;
     392:	8004      	strh	r4, [r0, #0]
        *p++ = (group_ID >> 8) & 0xFF;
     394:	f9b3 1000 	ldrsh.w	r1, [r3]
     398:	f993 3001 	ldrsb.w	r3, [r3, #1]
        *p++ = group_ID & 0xFF;
     39c:	70c1      	strb	r1, [r0, #3]
        *p++ = (group_ID >> 8) & 0xFF;
     39e:	7083      	strb	r3, [r0, #2]
        *p++ = MSG_TYPE_RETRIEVE;
        *p++ = pending_request_num;
     3a0:	783b      	ldrb	r3, [r7, #0]
        *p++ = MSG_TYPE_RETRIEVE;
     3a2:	7105      	strb	r5, [r0, #4]
        *p++ = pending_request_num;
     3a4:	7143      	strb	r3, [r0, #5]
        *p++ = node_ID;
     3a6:	4b38      	ldr	r3, [pc, #224]	; (488 <Retrieve+0x1bc>)
        *p++ = pending_destination_id;
        *p++ = (byte)record_index;
		*p++ = 0;
     3a8:	7244      	strb	r4, [r0, #9]
        *p++ = node_ID;
     3aa:	681b      	ldr	r3, [r3, #0]
     3ac:	7183      	strb	r3, [r0, #6]
        *p++ = pending_destination_id;
     3ae:	7833      	ldrb	r3, [r6, #0]
     3b0:	71c3      	strb	r3, [r0, #7]
        *p++ = (byte)record_index;
     3b2:	4b2a      	ldr	r3, [pc, #168]	; (45c <Retrieve+0x190>)
     3b4:	681b      	ldr	r3, [r3, #0]
     3b6:	7203      	strb	r3, [r0, #8]

        tcv_endp(packet);
     3b8:	f002 f860 	bl	247c <tcv_endp>
		proceed WAIT_RESPONSE;
     3bc:	2005      	movs	r0, #5
     3be:	f001 fd35 	bl	1e2c <proceed>

    state WAIT_RESPONSE:
        if (reply_received) {
     3c2:	4b2d      	ldr	r3, [pc, #180]	; (478 <Retrieve+0x1ac>)
     3c4:	781b      	ldrb	r3, [r3, #0]
     3c6:	b113      	cbz	r3, 3ce <Retrieve+0x102>
            proceed GOT_RESPONSE;
     3c8:	2007      	movs	r0, #7
     3ca:	f001 fd2f 	bl	1e2c <proceed>
        }

        delay(3000, TIMEOUT);
     3ce:	2106      	movs	r1, #6
     3d0:	f640 30b8 	movw	r0, #3000	; 0xbb8
     3d4:	f001 fd7a 	bl	1ecc <delay>
        release;
     3d8:	f001 fab8 	bl	194c <__pi_release>

    state TIMEOUT:
        if (reply_received) {
     3dc:	4b26      	ldr	r3, [pc, #152]	; (478 <Retrieve+0x1ac>)
     3de:	781b      	ldrb	r3, [r3, #0]
     3e0:	b113      	cbz	r3, 3e8 <Retrieve+0x11c>
            proceed GOT_RESPONSE;
     3e2:	2007      	movs	r0, #7
     3e4:	f001 fd22 	bl	1e2c <proceed>
        }

        pending_active = 0;
     3e8:	2400      	movs	r4, #0
     3ea:	4b22      	ldr	r3, [pc, #136]	; (474 <Retrieve+0x1a8>)
        ser_out(TIMEOUT, "\r\nFailed to reach the destination");
     3ec:	2006      	movs	r0, #6
     3ee:	4927      	ldr	r1, [pc, #156]	; (48c <Retrieve+0x1c0>)
        pending_active = 0;
     3f0:	701c      	strb	r4, [r3, #0]
        ser_out(TIMEOUT, "\r\nFailed to reach the destination");
     3f2:	f002 fbb5 	bl	2b60 <ser_out>
		retrieve_finished = 1;
     3f6:	2201      	movs	r2, #1
     3f8:	4b16      	ldr	r3, [pc, #88]	; (454 <Retrieve+0x188>)
        finish;
     3fa:	4620      	mov	r0, r4
		retrieve_finished = 1;
     3fc:	601a      	str	r2, [r3, #0]
        finish;
     3fe:	f001 fe5b 	bl	20b8 <kill>

    state GOT_RESPONSE:
        pending_active = 0;
     402:	2200      	movs	r2, #0
     404:	4b1b      	ldr	r3, [pc, #108]	; (474 <Retrieve+0x1a8>)
     406:	701a      	strb	r2, [r3, #0]

        if (reply_status == STATUS_SUCCESS) {
     408:	4b1c      	ldr	r3, [pc, #112]	; (47c <Retrieve+0x1b0>)
     40a:	781b      	ldrb	r3, [r3, #0]
     40c:	2b01      	cmp	r3, #1
     40e:	d10e      	bne.n	42e <Retrieve+0x162>
            ser_outf(GOT_RESPONSE,
     410:	4a14      	ldr	r2, [pc, #80]	; (464 <Retrieve+0x198>)
     412:	2007      	movs	r0, #7
     414:	4b1a      	ldr	r3, [pc, #104]	; (480 <Retrieve+0x1b4>)
     416:	7812      	ldrb	r2, [r2, #0]
     418:	491d      	ldr	r1, [pc, #116]	; (490 <Retrieve+0x1c4>)
     41a:	f002 fc13 	bl	2c44 <ser_outf>
                     reply_record);
        } else {
            ser_outf(GOT_RESPONSE,
                     "\r\n The record does not exist on node %d", dest_id);
        }
		retrieve_finished = 1;
     41e:	2201      	movs	r2, #1
     420:	4b0c      	ldr	r3, [pc, #48]	; (454 <Retrieve+0x188>)
        finish;
     422:	2000      	movs	r0, #0
		retrieve_finished = 1;
     424:	601a      	str	r2, [r3, #0]
}
     426:	e8bd 40f8 	ldmia.w	sp!, {r3, r4, r5, r6, r7, lr}
        finish;
     42a:	f001 be45 	b.w	20b8 <kill>
            ser_outf(GOT_RESPONSE,
     42e:	4b06      	ldr	r3, [pc, #24]	; (448 <Retrieve+0x17c>)
     430:	4918      	ldr	r1, [pc, #96]	; (494 <Retrieve+0x1c8>)
     432:	681a      	ldr	r2, [r3, #0]
     434:	2007      	movs	r0, #7
     436:	f002 fc05 	bl	2c44 <ser_outf>
     43a:	e7f0      	b.n	41e <Retrieve+0x152>
}
     43c:	e8bd 40f8 	ldmia.w	sp!, {r3, r4, r5, r6, r7, lr}
     440:	f001 bc6c 	b.w	1d1c <__pi_badstate>
     444:	00004f58 	andeq	r4, r0, r8, asr pc
     448:	20000580 	andcs	r0, r0, r0, lsl #11
     44c:	00005467 	andeq	r5, r0, r7, ror #8
     450:	00004f70 	andeq	r4, r0, r0, ror pc
     454:	20000628 	andcs	r0, r0, r8, lsr #12
     458:	00004ff8 	strdeq	r4, [r0], -r8
     45c:	20000608 	andcs	r0, r0, r8, lsl #12
     460:	00005010 	andeq	r5, r0, r0, lsl r0
     464:	200005e9 	andcs	r0, r0, r9, ror #11
     468:	200005ea 	andcs	r0, r0, sl, ror #11
     46c:	200005eb 	andcs	r0, r0, fp, ror #11
     470:	20000000 	andcs	r0, r0, r0
     474:	200005e8 	andcs	r0, r0, r8, ror #11
     478:	20000610 	andcs	r0, r0, r0, lsl r6
     47c:	20000625 	andcs	r0, r0, r5, lsr #12
     480:	20000611 	andcs	r0, r0, r1, lsl r6
     484:	200005bc 			; <UNDEFINED> instruction: 0x200005bc
     488:	200005d4 	ldrdcs	r0, [r0], -r4
     48c:	00004fa0 	andeq	r4, r0, r0, lsr #31
     490:	00005027 	andeq	r5, r0, r7, lsr #32
     494:	00005046 	andeq	r5, r0, r6, asr #32

00000498 <Find>:

		tcv_endp(response);
		proceed RECEIVE;
}

fsm Find{
     498:	b538      	push	{r3, r4, r5, lr}
     49a:	2806      	cmp	r0, #6
     49c:	d872      	bhi.n	584 <Find+0xec>
     49e:	e8df f000 	tbb	[pc, r0]
     4a2:	3c350e04 	ldccc	14, cr0, [r5], #-16
     4a6:	00695349 	rsbeq	r5, r9, r9, asr #6
	char *read_packet;
	int neighbor_print_index;

	state Reset_Neighbors:
		// For resetting neighbor list
		find_neighbor_count = 0;
     4aa:	2300      	movs	r3, #0
     4ac:	4a37      	ldr	r2, [pc, #220]	; (58c <Find+0xf4>)
		find_iteration = 0;
		find_active = 0;
		proceed Send_Discovery_Request;
     4ae:	2001      	movs	r0, #1
		find_neighbor_count = 0;
     4b0:	6013      	str	r3, [r2, #0]
		find_iteration = 0;
     4b2:	4a37      	ldr	r2, [pc, #220]	; (590 <Find+0xf8>)
     4b4:	6013      	str	r3, [r2, #0]
		find_active = 0;
     4b6:	4a37      	ldr	r2, [pc, #220]	; (594 <Find+0xfc>)
     4b8:	7013      	strb	r3, [r2, #0]
		proceed Send_Discovery_Request;
     4ba:	f001 fcb7 	bl	1e2c <proceed>
	
	state Send_Discovery_Request:
		find_iteration++;
     4be:	4a34      	ldr	r2, [pc, #208]	; (590 <Find+0xf8>)

		find_req_num = (byte)rnd();
     4c0:	4c35      	ldr	r4, [pc, #212]	; (598 <Find+0x100>)
		find_iteration++;
     4c2:	6813      	ldr	r3, [r2, #0]
     4c4:	3301      	adds	r3, #1
     4c6:	6013      	str	r3, [r2, #0]
		find_req_num = (byte)rnd();
     4c8:	f001 ff3a 	bl	2340 <lrnd>
     4cc:	0c00      	lsrs	r0, r0, #16
     4ce:	7020      	strb	r0, [r4, #0]
		find_active = 1;
     4d0:	2001      	movs	r0, #1
     4d2:	4b30      	ldr	r3, [pc, #192]	; (594 <Find+0xfc>)

		// Create a discovery request
		packet = tcv_wnp(Send_Discovery_Request, sfd, 10); // 2 network + 6 main + 2 crc
     4d4:	4931      	ldr	r1, [pc, #196]	; (59c <Find+0x104>)
     4d6:	220a      	movs	r2, #10
     4d8:	6809      	ldr	r1, [r1, #0]
		find_active = 1;
     4da:	7018      	strb	r0, [r3, #0]
		packet = tcv_wnp(Send_Discovery_Request, sfd, 10); // 2 network + 6 main + 2 crc
     4dc:	2300      	movs	r3, #0
     4de:	f002 f8b7 	bl	2650 <tcv_wnps>
		packet[0] = 0; //Network ID
     4e2:	2200      	movs	r2, #0
		// packet[1] = 0; //Padding for network ID
		read_packet = (char *)(packet + 1);

		//format is Group ID 2 bytes / message type 1 byte / request number 1 byte / sender id 1 byte / receiver id 1 byte / padding
		*read_packet++ = (group_ID >> 8) & 0xFF;    // Group ID high
     4e4:	492e      	ldr	r1, [pc, #184]	; (5a0 <Find+0x108>)
		packet[0] = 0; //Network ID
     4e6:	8002      	strh	r2, [r0, #0]
		*read_packet++ = (group_ID >> 8) & 0xFF;    // Group ID high
     4e8:	f9b1 5000 	ldrsh.w	r5, [r1]
     4ec:	f991 1001 	ldrsb.w	r1, [r1, #1]
		*read_packet++ = group_ID & 0xFF;           // Group ID low
     4f0:	70c5      	strb	r5, [r0, #3]
		*read_packet++ = (group_ID >> 8) & 0xFF;    // Group ID high
     4f2:	7081      	strb	r1, [r0, #2]
		*read_packet++ = MSG_TYPE_DISC_REQ;         // Type = 0 (Discovery Request)
		*read_packet++ = find_req_num;              // Request Number (random)
     4f4:	7821      	ldrb	r1, [r4, #0]
		*read_packet++ = MSG_TYPE_DISC_REQ;         // Type = 0 (Discovery Request)
     4f6:	7102      	strb	r2, [r0, #4]
		*read_packet++ = find_req_num;              // Request Number (random)
     4f8:	7141      	strb	r1, [r0, #5]
		*read_packet++ = node_ID;                   // Sender ID
     4fa:	492a      	ldr	r1, [pc, #168]	; (5a4 <Find+0x10c>)
		*read_packet++ = 0;                         // Receiver ID = 0 (broadcast)
     4fc:	71c2      	strb	r2, [r0, #7]
		*read_packet++ = node_ID;                   // Sender ID
     4fe:	6809      	ldr	r1, [r1, #0]
     500:	7181      	strb	r1, [r0, #6]
		// // debug for checking what is being sent
		// ser_outf(Send_Discovery_Request,
    	// 	"\r\nFIND SEND: g=%d req=%d src=%d dst=0\r\n",
    	// 	group_ID, find_req_num, node_ID);

		tcv_endp(packet);
     502:	f001 ffbb 	bl	247c <tcv_endp>
		proceed Wait_For_Responses;
     506:	2002      	movs	r0, #2
     508:	f001 fc90 	bl	1e2c <proceed>
	
	state Wait_For_Responses:
		// wait 3 sec for incoming response
		delay(3000, Check_Responses);
     50c:	2103      	movs	r1, #3
     50e:	f640 30b8 	movw	r0, #3000	; 0xbb8
     512:	f001 fcdb 	bl	1ecc <delay>
		release;
     516:	f001 fa19 	bl	194c <__pi_release>

	state Check_Responses:
		find_active = 0;
     51a:	2200      	movs	r2, #0
     51c:	4b1d      	ldr	r3, [pc, #116]	; (594 <Find+0xfc>)
     51e:	701a      	strb	r2, [r3, #0]
		//checks whether 2 iterations
		if (find_iteration >= 2) {
     520:	4b1b      	ldr	r3, [pc, #108]	; (590 <Find+0xf8>)
     522:	681b      	ldr	r3, [r3, #0]
     524:	2b01      	cmp	r3, #1
     526:	dd02      	ble.n	52e <Find+0x96>
			proceed Print_Neighbors_Header;
     528:	2004      	movs	r0, #4
     52a:	f001 fc7f 	bl	1e2c <proceed>
		}

		proceed Send_Discovery_Request;
     52e:	2001      	movs	r0, #1
     530:	f001 fc7c 	bl	1e2c <proceed>
	
	state Print_Neighbors_Header:
		// print list following format
		// “\r\n Neighbors: [Listof Neighbors]” 
		// where [List of Neighbors] should be replaced by the neighbors’ IDs.
		neighbor_print_index = 0;
     534:	2200      	movs	r2, #0
     536:	4b1c      	ldr	r3, [pc, #112]	; (5a8 <Find+0x110>)
		ser_outf(Print_Neighbors_Header, "\r\n Neighbors: ");
     538:	2004      	movs	r0, #4
     53a:	491c      	ldr	r1, [pc, #112]	; (5ac <Find+0x114>)
		neighbor_print_index = 0;
     53c:	601a      	str	r2, [r3, #0]
		ser_outf(Print_Neighbors_Header, "\r\n Neighbors: ");
     53e:	f002 fb81 	bl	2c44 <ser_outf>
		proceed Print_Neighbor_Item;
     542:	2005      	movs	r0, #5
     544:	f001 fc72 	bl	1e2c <proceed>

	state Print_Neighbor_Item:
		if (neighbor_print_index >= find_neighbor_count) {
     548:	4c17      	ldr	r4, [pc, #92]	; (5a8 <Find+0x110>)
     54a:	4b10      	ldr	r3, [pc, #64]	; (58c <Find+0xf4>)
     54c:	6822      	ldr	r2, [r4, #0]
     54e:	681b      	ldr	r3, [r3, #0]
     550:	429a      	cmp	r2, r3
     552:	db02      	blt.n	55a <Find+0xc2>
			proceed Finish_Find;
     554:	2006      	movs	r0, #6
     556:	f001 fc69 	bl	1e2c <proceed>
		}
		ser_outf(Print_Neighbor_Item, "%d ", find_neighbors[neighbor_print_index]);
     55a:	6823      	ldr	r3, [r4, #0]
     55c:	4a14      	ldr	r2, [pc, #80]	; (5b0 <Find+0x118>)
     55e:	2005      	movs	r0, #5
     560:	5cd2      	ldrb	r2, [r2, r3]
     562:	4914      	ldr	r1, [pc, #80]	; (5b4 <Find+0x11c>)
     564:	f002 fb6e 	bl	2c44 <ser_outf>
		neighbor_print_index++;
     568:	6823      	ldr	r3, [r4, #0]
		proceed Print_Neighbor_Item;
     56a:	2005      	movs	r0, #5
		neighbor_print_index++;
     56c:	3301      	adds	r3, #1
     56e:	6023      	str	r3, [r4, #0]
		proceed Print_Neighbor_Item;
     570:	f001 fc5c 	bl	1e2c <proceed>

	state Finish_Find:
		find_complete = 1;
     574:	2201      	movs	r2, #1
     576:	4b10      	ldr	r3, [pc, #64]	; (5b8 <Find+0x120>)
		finish;
     578:	2000      	movs	r0, #0
		find_complete = 1;
     57a:	601a      	str	r2, [r3, #0]
}
     57c:	e8bd 4038 	ldmia.w	sp!, {r3, r4, r5, lr}
		finish;
     580:	f001 bd9a 	b.w	20b8 <kill>
}
     584:	e8bd 4038 	ldmia.w	sp!, {r3, r4, r5, lr}
     588:	f001 bbc8 	b.w	1d1c <__pi_badstate>
     58c:	20000598 	mulcs	r0, r8, r5
     590:	20000594 	mulcs	r0, r4, r5
     594:	2000058c 	andcs	r0, r0, ip, lsl #11
     598:	200005b5 			; <UNDEFINED> instruction: 0x200005b5
     59c:	20000000 	andcs	r0, r0, r0
     5a0:	200005bc 			; <UNDEFINED> instruction: 0x200005bc
     5a4:	200005d4 	ldrdcs	r0, [r0], -r4
     5a8:	200005d0 	ldrdcs	r0, [r0], -r0	; <UNPREDICTABLE>
     5ac:	0000506e 	andeq	r5, r0, lr, rrx
     5b0:	2000059c 	mulcs	r0, ip, r5
     5b4:	0000507d 	andeq	r5, r0, sp, ror r0
     5b8:	20000590 	mulcs	r0, r0, r5

000005bc <Delete>:

fsm Delete{
     5bc:	b5f8      	push	{r3, r4, r5, r6, r7, lr}
     5be:	2807      	cmp	r0, #7
     5c0:	f200 80bb 	bhi.w	73a <Delete+0x17e>
     5c4:	e8df f000 	tbb	[pc, r0]
     5c8:	2e270b04 	vmulcs.f64	d0, d7, d4
     5cc:	9f8c7f49 	svcls	0x008c7f49
	int destination_id;
	int record_index;
	byte request_num;
	//prompts the user for the destination node ID to delete
	state Ask_Destination_ID:
		ser_out(Ask_Destination_ID, "\r\nDestination node ID: ");
     5d0:	2000      	movs	r0, #0
     5d2:	495c      	ldr	r1, [pc, #368]	; (744 <Delete+0x188>)
     5d4:	f002 fac4 	bl	2b60 <ser_out>
		proceed Ask_Destination_ID_In;
     5d8:	2001      	movs	r0, #1
     5da:	f001 fc27 	bl	1e2c <proceed>

	state Ask_Destination_ID_In:
		ser_inf(Ask_Destination_ID_In, "%d", &destination_id);
     5de:	4c5a      	ldr	r4, [pc, #360]	; (748 <Delete+0x18c>)
     5e0:	495a      	ldr	r1, [pc, #360]	; (74c <Delete+0x190>)
     5e2:	4622      	mov	r2, r4
     5e4:	2001      	movs	r0, #1
     5e6:	f002 fb57 	bl	2c98 <ser_inf>
		ser_outf(Ask_Destination_ID_In, "%d", destination_id);
     5ea:	2001      	movs	r0, #1
     5ec:	6822      	ldr	r2, [r4, #0]
     5ee:	4957      	ldr	r1, [pc, #348]	; (74c <Delete+0x190>)
     5f0:	f002 fb28 	bl	2c44 <ser_outf>
		if (destination_id < 1 || destination_id > 25) {
     5f4:	6823      	ldr	r3, [r4, #0]
     5f6:	3b01      	subs	r3, #1
     5f8:	2b18      	cmp	r3, #24
     5fa:	d909      	bls.n	610 <Delete+0x54>
			ser_out(Ask_Destination_ID_In, "\r\nInvalid destination node ID");
     5fc:	2001      	movs	r0, #1
     5fe:	4954      	ldr	r1, [pc, #336]	; (750 <Delete+0x194>)
     600:	f002 faae 	bl	2b60 <ser_out>
			delete_finished = 1;
     604:	2201      	movs	r2, #1
     606:	4b53      	ldr	r3, [pc, #332]	; (754 <Delete+0x198>)
			finish;
     608:	2000      	movs	r0, #0
			delete_finished = 1;
     60a:	601a      	str	r2, [r3, #0]
			finish;
     60c:	f001 fd54 	bl	20b8 <kill>
		}
		proceed Ask_Record_Index;
     610:	2002      	movs	r0, #2
     612:	f001 fc0b 	bl	1e2c <proceed>

	//prompts the user of the record index to delete
	state Ask_Record_Index:
		ser_out(Ask_Record_Index, "\r\nEnter record index: ");
     616:	2002      	movs	r0, #2
     618:	494f      	ldr	r1, [pc, #316]	; (758 <Delete+0x19c>)
     61a:	f002 faa1 	bl	2b60 <ser_out>
		proceed Ask_Record_Index_In;
     61e:	2003      	movs	r0, #3
     620:	f001 fc04 	bl	1e2c <proceed>

	state Ask_Record_Index_In:
		ser_inf(Ask_Record_Index_In, "%d", &record_index);
     624:	4c4d      	ldr	r4, [pc, #308]	; (75c <Delete+0x1a0>)
     626:	4949      	ldr	r1, [pc, #292]	; (74c <Delete+0x190>)
     628:	4622      	mov	r2, r4
     62a:	2003      	movs	r0, #3
     62c:	f002 fb34 	bl	2c98 <ser_inf>
		ser_outf(Ask_Record_Index_In, "%d", record_index);
     630:	2003      	movs	r0, #3
     632:	6822      	ldr	r2, [r4, #0]
     634:	4945      	ldr	r1, [pc, #276]	; (74c <Delete+0x190>)
     636:	f002 fb05 	bl	2c44 <ser_outf>
		if (record_index < 0 || record_index >= 40) {
     63a:	6823      	ldr	r3, [r4, #0]
     63c:	2b27      	cmp	r3, #39	; 0x27
     63e:	d909      	bls.n	654 <Delete+0x98>
			ser_out(Ask_Record_Index_In, "\r\nInvalid record index");
     640:	2003      	movs	r0, #3
     642:	4947      	ldr	r1, [pc, #284]	; (760 <Delete+0x1a4>)
     644:	f002 fa8c 	bl	2b60 <ser_out>
			delete_finished = 1;
     648:	2201      	movs	r2, #1
     64a:	4b42      	ldr	r3, [pc, #264]	; (754 <Delete+0x198>)
			finish;
     64c:	2000      	movs	r0, #0
			delete_finished = 1;
     64e:	601a      	str	r2, [r3, #0]
			finish;
     650:	f001 fd32 	bl	20b8 <kill>
		}	
		proceed Send_delete_request;
     654:	2004      	movs	r0, #4
     656:	f001 fbe9 	bl	1e2c <proceed>
	state Send_delete_request:
		//prepares the delete operation

		pending_request_num = (byte)rnd();
		pending_destination_id = (byte)destination_id;
		pending_type = MSG_TYPE_DELETE;
     65a:	2703      	movs	r7, #3
		pending_request_num = (byte)rnd();
     65c:	f001 fe70 	bl	2340 <lrnd>
		pending_active = 1;
     660:	2201      	movs	r2, #1
		reply_received = 0;
     662:	2400      	movs	r4, #0
		pending_destination_id = (byte)destination_id;
     664:	4b38      	ldr	r3, [pc, #224]	; (748 <Delete+0x18c>)
     666:	4d3f      	ldr	r5, [pc, #252]	; (764 <Delete+0x1a8>)
     668:	681b      	ldr	r3, [r3, #0]
		pending_request_num = (byte)rnd();
     66a:	4e3f      	ldr	r6, [pc, #252]	; (768 <Delete+0x1ac>)
		pending_destination_id = (byte)destination_id;
     66c:	702b      	strb	r3, [r5, #0]
		pending_type = MSG_TYPE_DELETE;
     66e:	4b3f      	ldr	r3, [pc, #252]	; (76c <Delete+0x1b0>)
		reply_status = 0;
		delete_response_received = 0;

		//creates a packet to send the delete request to the destination node with 8 bytes of payload
		packet = tcv_wnp(Send_delete_request, sfd, 12);
     670:	493f      	ldr	r1, [pc, #252]	; (770 <Delete+0x1b4>)
		pending_type = MSG_TYPE_DELETE;
     672:	701f      	strb	r7, [r3, #0]
		pending_active = 1;
     674:	4b3f      	ldr	r3, [pc, #252]	; (774 <Delete+0x1b8>)
		pending_request_num = (byte)rnd();
     676:	0c00      	lsrs	r0, r0, #16
		pending_active = 1;
     678:	701a      	strb	r2, [r3, #0]
		reply_received = 0;
     67a:	4b3f      	ldr	r3, [pc, #252]	; (778 <Delete+0x1bc>)
		packet = tcv_wnp(Send_delete_request, sfd, 12);
     67c:	220c      	movs	r2, #12
		reply_received = 0;
     67e:	701c      	strb	r4, [r3, #0]
		reply_status = 0;
     680:	4b3e      	ldr	r3, [pc, #248]	; (77c <Delete+0x1c0>)
		packet = tcv_wnp(Send_delete_request, sfd, 12);
     682:	6809      	ldr	r1, [r1, #0]
		reply_status = 0;
     684:	701c      	strb	r4, [r3, #0]
		delete_response_received = 0;
     686:	4b3e      	ldr	r3, [pc, #248]	; (780 <Delete+0x1c4>)
		pending_request_num = (byte)rnd();
     688:	7030      	strb	r0, [r6, #0]
		delete_response_received = 0;
     68a:	701c      	strb	r4, [r3, #0]
		packet = tcv_wnp(Send_delete_request, sfd, 12);
     68c:	2004      	movs	r0, #4
     68e:	4623      	mov	r3, r4
     690:	f001 ffde 	bl	2650 <tcv_wnps>
		//sets network id to 0
		packet[0] = 0;
		read_packet = (char *)(packet +1);

		*read_packet++ = (group_ID >> 8) & 0xFF;
     694:	4b3b      	ldr	r3, [pc, #236]	; (784 <Delete+0x1c8>)
		packet[0] = 0;
     696:	8004      	strh	r4, [r0, #0]
		*read_packet++ = (group_ID >> 8) & 0xFF;
     698:	f9b3 1000 	ldrsh.w	r1, [r3]
     69c:	f993 3001 	ldrsb.w	r3, [r3, #1]
		*read_packet++ = group_ID & 0xFF;
     6a0:	70c1      	strb	r1, [r0, #3]
		*read_packet++ = (group_ID >> 8) & 0xFF;
     6a2:	7083      	strb	r3, [r0, #2]

		//sets message type to 3 to indicate a delete request
		*read_packet++ = MSG_TYPE_DELETE;

		//stores the request number in the packet
		*read_packet++ = pending_request_num;
     6a4:	7833      	ldrb	r3, [r6, #0]
		*read_packet++ = MSG_TYPE_DELETE;
     6a6:	7107      	strb	r7, [r0, #4]
		*read_packet++ = pending_request_num;
     6a8:	7143      	strb	r3, [r0, #5]

		//stores the current node ID as the sender ID in the packet
		*read_packet++ =  node_ID;
     6aa:	4b37      	ldr	r3, [pc, #220]	; (788 <Delete+0x1cc>)

		//stores the record index to be deleted in the packet
		*read_packet++ = (byte)record_index;

		//sets the rest of the packet to 0 for padding
		*read_packet++ = 0;
     6ac:	7244      	strb	r4, [r0, #9]
		*read_packet++ =  node_ID;
     6ae:	681b      	ldr	r3, [r3, #0]
     6b0:	7183      	strb	r3, [r0, #6]
		*read_packet++ = pending_destination_id;
     6b2:	782b      	ldrb	r3, [r5, #0]
     6b4:	71c3      	strb	r3, [r0, #7]
		*read_packet++ = (byte)record_index;
     6b6:	4b29      	ldr	r3, [pc, #164]	; (75c <Delete+0x1a0>)
     6b8:	681b      	ldr	r3, [r3, #0]
     6ba:	7203      	strb	r3, [r0, #8]
		
		tcv_endp(packet);
     6bc:	f001 fede 	bl	247c <tcv_endp>
		proceed Wait_Response;
     6c0:	2005      	movs	r0, #5
     6c2:	f001 fbb3 	bl	1e2c <proceed>
	
	
	//waits for a response from the destination node
	state Wait_Response:

		if (reply_received){
     6c6:	4b2c      	ldr	r3, [pc, #176]	; (778 <Delete+0x1bc>)
     6c8:	781b      	ldrb	r3, [r3, #0]
     6ca:	b113      	cbz	r3, 6d2 <Delete+0x116>
			proceed Print_Result;
     6cc:	2007      	movs	r0, #7
     6ce:	f001 fbad 	bl	1e2c <proceed>
		}
		delay(3000, Timeout);
     6d2:	2106      	movs	r1, #6
     6d4:	f640 30b8 	movw	r0, #3000	; 0xbb8
     6d8:	f001 fbf8 	bl	1ecc <delay>
		release;
     6dc:	f001 f936 	bl	194c <__pi_release>
	//if no response was received print failed to reach....
	state Timeout:
		if (reply_received){
     6e0:	4b25      	ldr	r3, [pc, #148]	; (778 <Delete+0x1bc>)
     6e2:	781b      	ldrb	r3, [r3, #0]
     6e4:	b113      	cbz	r3, 6ec <Delete+0x130>
			proceed Print_Result;
     6e6:	2007      	movs	r0, #7
     6e8:	f001 fba0 	bl	1e2c <proceed>
		}
		pending_active=0;
     6ec:	2400      	movs	r4, #0
     6ee:	4b21      	ldr	r3, [pc, #132]	; (774 <Delete+0x1b8>)
		ser_out(Timeout, "\r\nFailed to reach the destination");
     6f0:	2006      	movs	r0, #6
     6f2:	4926      	ldr	r1, [pc, #152]	; (78c <Delete+0x1d0>)
		pending_active=0;
     6f4:	701c      	strb	r4, [r3, #0]
		ser_out(Timeout, "\r\nFailed to reach the destination");
     6f6:	f002 fa33 	bl	2b60 <ser_out>
		delete_finished = 1;
     6fa:	2201      	movs	r2, #1
     6fc:	4b15      	ldr	r3, [pc, #84]	; (754 <Delete+0x198>)
		finish;
     6fe:	4620      	mov	r0, r4
		delete_finished = 1;
     700:	601a      	str	r2, [r3, #0]
		finish;
     702:	f001 fcd9 	bl	20b8 <kill>
	//prints the results
	state Print_Result:
		pending_active = 0;
     706:	2200      	movs	r2, #0
     708:	4b1a      	ldr	r3, [pc, #104]	; (774 <Delete+0x1b8>)
     70a:	701a      	strb	r2, [r3, #0]
		if (reply_status == STATUS_SUCCESS){
     70c:	4b1b      	ldr	r3, [pc, #108]	; (77c <Delete+0x1c0>)
     70e:	781b      	ldrb	r3, [r3, #0]
     710:	2b01      	cmp	r3, #1
     712:	d10b      	bne.n	72c <Delete+0x170>
			ser_out(Print_Result, "\r\n Record Deleted");
     714:	2007      	movs	r0, #7
     716:	491e      	ldr	r1, [pc, #120]	; (790 <Delete+0x1d4>)
     718:	f002 fa22 	bl	2b60 <ser_out>
		}
		else{
			ser_outf(Print_Result, "\r\n The record doesnot exists on node %d", pending_destination_id);
		}
		delete_finished = 1;
     71c:	2201      	movs	r2, #1
     71e:	4b0d      	ldr	r3, [pc, #52]	; (754 <Delete+0x198>)
		finish;
     720:	2000      	movs	r0, #0
		delete_finished = 1;
     722:	601a      	str	r2, [r3, #0]
}
     724:	e8bd 40f8 	ldmia.w	sp!, {r3, r4, r5, r6, r7, lr}
		finish;
     728:	f001 bcc6 	b.w	20b8 <kill>
			ser_outf(Print_Result, "\r\n The record doesnot exists on node %d", pending_destination_id);
     72c:	4b0d      	ldr	r3, [pc, #52]	; (764 <Delete+0x1a8>)
     72e:	4919      	ldr	r1, [pc, #100]	; (794 <Delete+0x1d8>)
     730:	781a      	ldrb	r2, [r3, #0]
     732:	2007      	movs	r0, #7
     734:	f002 fa86 	bl	2c44 <ser_outf>
     738:	e7f0      	b.n	71c <Delete+0x160>
}
     73a:	e8bd 40f8 	ldmia.w	sp!, {r3, r4, r5, r6, r7, lr}
     73e:	f001 baed 	b.w	1d1c <__pi_badstate>
     742:	bf00      	nop
     744:	00004f58 	andeq	r4, r0, r8, asr pc
     748:	20000588 	andcs	r0, r0, r8, lsl #11
     74c:	00005467 	andeq	r5, r0, r7, ror #8
     750:	00004f70 	andeq	r4, r0, r0, ror pc
     754:	20000578 	andcs	r0, r0, r8, ror r5
     758:	00005081 	andeq	r5, r0, r1, lsl #1
     75c:	2000060c 	andcs	r0, r0, ip, lsl #12
     760:	00005010 	andeq	r5, r0, r0, lsl r0
     764:	200005e9 	andcs	r0, r0, r9, ror #11
     768:	200005ea 	andcs	r0, r0, sl, ror #11
     76c:	200005eb 	andcs	r0, r0, fp, ror #11
     770:	20000000 	andcs	r0, r0, r0
     774:	200005e8 	andcs	r0, r0, r8, ror #11
     778:	20000610 	andcs	r0, r0, r0, lsl r6
     77c:	20000625 	andcs	r0, r0, r5, lsr #12
     780:	2000057c 	andcs	r0, r0, ip, ror r5
     784:	200005bc 			; <UNDEFINED> instruction: 0x200005bc
     788:	200005d4 	ldrdcs	r0, [r0], -r4
     78c:	00004fa0 	andeq	r4, r0, r0, lsr #31
     790:	00005098 	muleq	r0, r8, r0
     794:	000050aa 	andeq	r5, r0, sl, lsr #1

00000798 <Receiver>:
fsm Receiver{
     798:	e92d 4ff8 	stmdb	sp!, {r3, r4, r5, r6, r7, r8, r9, sl, fp, lr}
     79c:	280c      	cmp	r0, #12
     79e:	f200 82dd 	bhi.w	d5c <Receiver+0x5c4>
     7a2:	e8df f010 	tbh	[pc, r0, lsl #1]
     7a6:	0017000d 	andseq	r0, r7, sp
     7aa:	00ce00c7 	sbceq	r0, lr, r7, asr #1
     7ae:	010900e5 	smlatteq	r9, r5, r0, r0
     7b2:	01b00184 	lslseq	r0, r4, #3
     7b6:	01f101d8 	ldrsbeq	r0, [r1, #24]!
     7ba:	02360219 	eorseq	r0, r6, #-1879048191	; 0x90000001
     7be:	4b990272 	blmi	fe64118e <_estack+0xde63c18e>
		packet = tcv_rnp(RECEIVE, sfd);
     7c2:	2000      	movs	r0, #0
     7c4:	6819      	ldr	r1, [r3, #0]
     7c6:	f001 ff03 	bl	25d0 <tcv_rnp>
     7ca:	4b98      	ldr	r3, [pc, #608]	; (a2c <Receiver+0x294>)
     7cc:	6018      	str	r0, [r3, #0]
		proceed PROCESS;
     7ce:	2001      	movs	r0, #1
     7d0:	f001 fb2c 	bl	1e2c <proceed>
		p = (char *)(packet + 1);
     7d4:	4f95      	ldr	r7, [pc, #596]	; (a2c <Receiver+0x294>)
     7d6:	f8df a258 	ldr.w	sl, [pc, #600]	; a30 <Receiver+0x298>
     7da:	683b      	ldr	r3, [r7, #0]
		packet_group = (((int)((byte)p[0])) << 8) | ((int)((byte)p[1]));
     7dc:	f8df 8254 	ldr.w	r8, [pc, #596]	; a34 <Receiver+0x29c>
		p = (char *)(packet + 1);
     7e0:	1c9a      	adds	r2, r3, #2
     7e2:	f8ca 2000 	str.w	r2, [sl]
		packet_group = (((int)((byte)p[0])) << 8) | ((int)((byte)p[1]));
     7e6:	885a      	ldrh	r2, [r3, #2]
		request_num = p[3];
     7e8:	7959      	ldrb	r1, [r3, #5]
		packet_group = (((int)((byte)p[0])) << 8) | ((int)((byte)p[1]));
     7ea:	ba52      	rev16	r2, r2
     7ec:	b292      	uxth	r2, r2
		request_num = p[3];
     7ee:	4e92      	ldr	r6, [pc, #584]	; (a38 <Receiver+0x2a0>)
		packet_group = (((int)((byte)p[0])) << 8) | ((int)((byte)p[1]));
     7f0:	f8c8 2000 	str.w	r2, [r8]
		msg_type = p[2];
     7f4:	791a      	ldrb	r2, [r3, #4]
     7f6:	4c91      	ldr	r4, [pc, #580]	; (a3c <Receiver+0x2a4>)
		sender_id = p[4];
     7f8:	f8df 9244 	ldr.w	r9, [pc, #580]	; a40 <Receiver+0x2a8>
		receiver_id = p[5];
     7fc:	4d91      	ldr	r5, [pc, #580]	; (a44 <Receiver+0x2ac>)
		request_num = p[3];
     7fe:	7031      	strb	r1, [r6, #0]
		sender_id = p[4];
     800:	7999      	ldrb	r1, [r3, #6]
		receiver_id = p[5];
     802:	79db      	ldrb	r3, [r3, #7]
		if (msg_type > MSG_TYPE_RESPONSE) {
     804:	2a05      	cmp	r2, #5
		msg_type = p[2];
     806:	7022      	strb	r2, [r4, #0]
		sender_id = p[4];
     808:	f889 1000 	strb.w	r1, [r9]
		receiver_id = p[5];
     80c:	702b      	strb	r3, [r5, #0]
		if (msg_type > MSG_TYPE_RESPONSE) {
     80e:	d902      	bls.n	816 <Receiver+0x7e>
			proceed DROP_PACKET;
     810:	2002      	movs	r0, #2
     812:	f001 fb0b 	bl	1e2c <proceed>
		if (msg_type == MSG_TYPE_DISC_REQ) {
     816:	7823      	ldrb	r3, [r4, #0]
     818:	f8df b22c 	ldr.w	fp, [pc, #556]	; a48 <Receiver+0x2b0>
     81c:	b96b      	cbnz	r3, 83a <Receiver+0xa2>
			if (packet_group == group_ID && receiver_id == 0) {
     81e:	f9bb 2000 	ldrsh.w	r2, [fp]
     822:	f8d8 3000 	ldr.w	r3, [r8]
     826:	429a      	cmp	r2, r3
     828:	d104      	bne.n	834 <Receiver+0x9c>
     82a:	782b      	ldrb	r3, [r5, #0]
     82c:	b913      	cbnz	r3, 834 <Receiver+0x9c>
				proceed HANDLE_DISC_REQ;
     82e:	2003      	movs	r0, #3
     830:	f001 fafc 	bl	1e2c <proceed>
			proceed DROP_PACKET;
     834:	2002      	movs	r0, #2
     836:	f001 faf9 	bl	1e2c <proceed>
		if (packet_group != group_ID) {
     83a:	f9bb 2000 	ldrsh.w	r2, [fp]
     83e:	f8d8 3000 	ldr.w	r3, [r8]
     842:	429a      	cmp	r2, r3
     844:	d002      	beq.n	84c <Receiver+0xb4>
			proceed DROP_PACKET;
     846:	2002      	movs	r0, #2
     848:	f001 faf0 	bl	1e2c <proceed>
		if (msg_type == MSG_TYPE_RESPONSE) {
     84c:	7823      	ldrb	r3, [r4, #0]
     84e:	f8df 81fc 	ldr.w	r8, [pc, #508]	; a4c <Receiver+0x2b4>
     852:	2b05      	cmp	r3, #5
     854:	d13b      	bne.n	8ce <Receiver+0x136>
			status = p[6];
     856:	f8da 2000 	ldr.w	r2, [sl]
     85a:	497d      	ldr	r1, [pc, #500]	; (a50 <Receiver+0x2b8>)
     85c:	7993      	ldrb	r3, [r2, #6]
			if (receiver_id == node_ID &&
     85e:	7828      	ldrb	r0, [r5, #0]
			status = p[6];
     860:	700b      	strb	r3, [r1, #0]
			if (receiver_id == node_ID &&
     862:	f8d8 1000 	ldr.w	r1, [r8]
     866:	4288      	cmp	r0, r1
     868:	d12b      	bne.n	8c2 <Receiver+0x12a>
     86a:	497a      	ldr	r1, [pc, #488]	; (a54 <Receiver+0x2bc>)
     86c:	7809      	ldrb	r1, [r1, #0]
     86e:	b341      	cbz	r1, 8c2 <Receiver+0x12a>
				pending_active &&
     870:	4979      	ldr	r1, [pc, #484]	; (a58 <Receiver+0x2c0>)
     872:	f899 0000 	ldrb.w	r0, [r9]
     876:	7809      	ldrb	r1, [r1, #0]
     878:	4288      	cmp	r0, r1
     87a:	d122      	bne.n	8c2 <Receiver+0x12a>
				sender_id == pending_destination_id &&
     87c:	4977      	ldr	r1, [pc, #476]	; (a5c <Receiver+0x2c4>)
     87e:	7830      	ldrb	r0, [r6, #0]
     880:	7809      	ldrb	r1, [r1, #0]
     882:	4288      	cmp	r0, r1
     884:	d11d      	bne.n	8c2 <Receiver+0x12a>
				reply_received = 1;
     886:	2001      	movs	r0, #1
				reply_status = status;
     888:	4975      	ldr	r1, [pc, #468]	; (a60 <Receiver+0x2c8>)
     88a:	700b      	strb	r3, [r1, #0]
				reply_received = 1;
     88c:	4975      	ldr	r1, [pc, #468]	; (a64 <Receiver+0x2cc>)
     88e:	7008      	strb	r0, [r1, #0]
				if (pending_type == MSG_TYPE_RETRIEVE &&
     890:	4975      	ldr	r1, [pc, #468]	; (a68 <Receiver+0x2d0>)
     892:	7809      	ldrb	r1, [r1, #0]
     894:	2904      	cmp	r1, #4
     896:	d114      	bne.n	8c2 <Receiver+0x12a>
     898:	4283      	cmp	r3, r0
     89a:	d112      	bne.n	8c2 <Receiver+0x12a>
					for (i = 0; i < 20; i++) {
     89c:	4873      	ldr	r0, [pc, #460]	; (a6c <Receiver+0x2d4>)
     89e:	2300      	movs	r3, #0
     8a0:	4686      	mov	lr, r0
     8a2:	f8df c1cc 	ldr.w	ip, [pc, #460]	; a70 <Receiver+0x2d8>
     8a6:	1dd1      	adds	r1, r2, #7
     8a8:	f8cc 3000 	str.w	r3, [ip]
     8ac:	321b      	adds	r2, #27
     8ae:	4291      	cmp	r1, r2
     8b0:	f040 80b3 	bne.w	a1a <Receiver+0x282>
     8b4:	b113      	cbz	r3, 8bc <Receiver+0x124>
     8b6:	2314      	movs	r3, #20
     8b8:	f8cc 3000 	str.w	r3, [ip]
					reply_record[19] = '\0';
     8bc:	2300      	movs	r3, #0
     8be:	f88e 3013 	strb.w	r3, [lr, #19]
			tcv_endp(packet);
     8c2:	6838      	ldr	r0, [r7, #0]
     8c4:	f001 fdda 	bl	247c <tcv_endp>
			proceed RECEIVE;
     8c8:	2000      	movs	r0, #0
     8ca:	f001 faaf 	bl	1e2c <proceed>
		if (msg_type == MSG_TYPE_DISC_RESP) {
     8ce:	7823      	ldrb	r3, [r4, #0]
     8d0:	2b01      	cmp	r3, #1
     8d2:	d112      	bne.n	8fa <Receiver+0x162>
			if (receiver_id == node_ID &&
     8d4:	782a      	ldrb	r2, [r5, #0]
     8d6:	f8d8 3000 	ldr.w	r3, [r8]
     8da:	429a      	cmp	r2, r3
     8dc:	d10a      	bne.n	8f4 <Receiver+0x15c>
     8de:	4b65      	ldr	r3, [pc, #404]	; (a74 <Receiver+0x2dc>)
     8e0:	781b      	ldrb	r3, [r3, #0]
     8e2:	b13b      	cbz	r3, 8f4 <Receiver+0x15c>
				find_active &&
     8e4:	4b64      	ldr	r3, [pc, #400]	; (a78 <Receiver+0x2e0>)
     8e6:	7832      	ldrb	r2, [r6, #0]
     8e8:	781b      	ldrb	r3, [r3, #0]
     8ea:	429a      	cmp	r2, r3
     8ec:	d102      	bne.n	8f4 <Receiver+0x15c>
				proceed HANDLE_DISC_RESP;
     8ee:	2005      	movs	r0, #5
     8f0:	f001 fa9c 	bl	1e2c <proceed>
			proceed DROP_PACKET;
     8f4:	2002      	movs	r0, #2
     8f6:	f001 fa99 	bl	1e2c <proceed>
		if (receiver_id != node_ID) {
     8fa:	782a      	ldrb	r2, [r5, #0]
     8fc:	f8d8 3000 	ldr.w	r3, [r8]
     900:	429a      	cmp	r2, r3
     902:	d002      	beq.n	90a <Receiver+0x172>
			proceed DROP_PACKET;
     904:	2002      	movs	r0, #2
     906:	f001 fa91 	bl	1e2c <proceed>
		if (msg_type == MSG_TYPE_CREATE) {
     90a:	7823      	ldrb	r3, [r4, #0]
     90c:	2b02      	cmp	r3, #2
     90e:	d102      	bne.n	916 <Receiver+0x17e>
			proceed HANDLE_CREATE;
     910:	2006      	movs	r0, #6
     912:	f001 fa8b 	bl	1e2c <proceed>
		if (msg_type == MSG_TYPE_DELETE) {
     916:	7823      	ldrb	r3, [r4, #0]
     918:	2b03      	cmp	r3, #3
     91a:	d102      	bne.n	922 <Receiver+0x18a>
			proceed HANDLE_DELETE;
     91c:	2008      	movs	r0, #8
     91e:	f001 fa85 	bl	1e2c <proceed>
		if (msg_type == MSG_TYPE_RETRIEVE) {
     922:	7823      	ldrb	r3, [r4, #0]
     924:	2b04      	cmp	r3, #4
     926:	d102      	bne.n	92e <Receiver+0x196>
			proceed HANDLE_RETRIEVE;
     928:	200a      	movs	r0, #10
     92a:	f001 fa7f 	bl	1e2c <proceed>
		proceed DROP_PACKET;
     92e:	2002      	movs	r0, #2
     930:	f001 fa7c 	bl	1e2c <proceed>
		tcv_endp(packet);
     934:	4b3d      	ldr	r3, [pc, #244]	; (a2c <Receiver+0x294>)
     936:	6818      	ldr	r0, [r3, #0]
     938:	f001 fda0 	bl	247c <tcv_endp>
		proceed RECEIVE;
     93c:	2000      	movs	r0, #0
     93e:	f001 fa75 	bl	1e2c <proceed>
		if (packet_group != group_ID || receiver_id !=0){
     942:	4b41      	ldr	r3, [pc, #260]	; (a48 <Receiver+0x2b0>)
     944:	4c39      	ldr	r4, [pc, #228]	; (a2c <Receiver+0x294>)
     946:	f9b3 2000 	ldrsh.w	r2, [r3]
     94a:	4b3a      	ldr	r3, [pc, #232]	; (a34 <Receiver+0x29c>)
     94c:	681b      	ldr	r3, [r3, #0]
     94e:	429a      	cmp	r2, r3
     950:	d102      	bne.n	958 <Receiver+0x1c0>
     952:	4b3c      	ldr	r3, [pc, #240]	; (a44 <Receiver+0x2ac>)
     954:	781b      	ldrb	r3, [r3, #0]
     956:	b12b      	cbz	r3, 964 <Receiver+0x1cc>
			tcv_endp(packet);
     958:	6820      	ldr	r0, [r4, #0]
     95a:	f001 fd8f 	bl	247c <tcv_endp>
			proceed RECEIVE;
     95e:	2000      	movs	r0, #0
     960:	f001 fa64 	bl	1e2c <proceed>
		tcv_endp(packet);
     964:	6820      	ldr	r0, [r4, #0]
     966:	f001 fd89 	bl	247c <tcv_endp>
		proceed SEND_DISC_RESP;
     96a:	2004      	movs	r0, #4
     96c:	f001 fa5e 	bl	1e2c <proceed>
		response = tcv_wnp(SEND_DISC_RESP, sfd, 10);
     970:	492d      	ldr	r1, [pc, #180]	; (a28 <Receiver+0x290>)
     972:	2300      	movs	r3, #0
     974:	220a      	movs	r2, #10
     976:	6809      	ldr	r1, [r1, #0]
     978:	2004      	movs	r0, #4
     97a:	f001 fe69 	bl	2650 <tcv_wnps>
		response[0] = 0; // net id
     97e:	2400      	movs	r4, #0
		*q++ = (group_ID >> 8) & 0xFF; // group id
     980:	4a31      	ldr	r2, [pc, #196]	; (a48 <Receiver+0x2b0>)
		response[0] = 0; // net id
     982:	8004      	strh	r4, [r0, #0]
		*q++ = (group_ID >> 8) & 0xFF; // group id
     984:	f9b2 1000 	ldrsh.w	r1, [r2]
     988:	f992 2001 	ldrsb.w	r2, [r2, #1]
		*q++ = group_ID & 0xFF; // group id
     98c:	70c1      	strb	r1, [r0, #3]
		*q++ = (group_ID >> 8) & 0xFF; // group id
     98e:	7082      	strb	r2, [r0, #2]
		*q++ = MSG_TYPE_DISC_RESP; // message type = discovery response
     990:	2201      	movs	r2, #1
     992:	7102      	strb	r2, [r0, #4]
		*q++ = request_num; // request number
     994:	4a28      	ldr	r2, [pc, #160]	; (a38 <Receiver+0x2a0>)
		*q++ = sender_id; 
     996:	f100 0108 	add.w	r1, r0, #8
		*q++ = request_num; // request number
     99a:	7812      	ldrb	r2, [r2, #0]
     99c:	7142      	strb	r2, [r0, #5]
		*q++ = node_ID; // node id
     99e:	4a2b      	ldr	r2, [pc, #172]	; (a4c <Receiver+0x2b4>)
     9a0:	6812      	ldr	r2, [r2, #0]
     9a2:	7182      	strb	r2, [r0, #6]
		*q++ = sender_id; 
     9a4:	4a35      	ldr	r2, [pc, #212]	; (a7c <Receiver+0x2e4>)
     9a6:	6011      	str	r1, [r2, #0]
     9a8:	4a25      	ldr	r2, [pc, #148]	; (a40 <Receiver+0x2a8>)
     9aa:	7812      	ldrb	r2, [r2, #0]
     9ac:	71c2      	strb	r2, [r0, #7]
		tcv_endp(response);
     9ae:	f001 fd65 	bl	247c <tcv_endp>
		proceed RECEIVE;
     9b2:	4620      	mov	r0, r4
     9b4:	f001 fa3a 	bl	1e2c <proceed>
		found = 1; // flag for found neighbours. set to 0 when enter loop.
     9b8:	2301      	movs	r3, #1
     9ba:	4d31      	ldr	r5, [pc, #196]	; (a80 <Receiver+0x2e8>)
     9bc:	602b      	str	r3, [r5, #0]
		if (packet_group == group_ID &&
     9be:	4b22      	ldr	r3, [pc, #136]	; (a48 <Receiver+0x2b0>)
     9c0:	f9b3 2000 	ldrsh.w	r2, [r3]
     9c4:	4b1b      	ldr	r3, [pc, #108]	; (a34 <Receiver+0x29c>)
     9c6:	681b      	ldr	r3, [r3, #0]
     9c8:	429a      	cmp	r2, r3
     9ca:	d169      	bne.n	aa0 <Receiver+0x308>
			receiver_id == node_ID &&
     9cc:	4b1d      	ldr	r3, [pc, #116]	; (a44 <Receiver+0x2ac>)
     9ce:	781a      	ldrb	r2, [r3, #0]
     9d0:	4b1e      	ldr	r3, [pc, #120]	; (a4c <Receiver+0x2b4>)
		if (packet_group == group_ID &&
     9d2:	681b      	ldr	r3, [r3, #0]
     9d4:	429a      	cmp	r2, r3
     9d6:	d163      	bne.n	aa0 <Receiver+0x308>
			receiver_id == node_ID &&
     9d8:	4b26      	ldr	r3, [pc, #152]	; (a74 <Receiver+0x2dc>)
     9da:	781b      	ldrb	r3, [r3, #0]
     9dc:	2b00      	cmp	r3, #0
     9de:	d05f      	beq.n	aa0 <Receiver+0x308>
			find_active && // flag stating that we are currently running find protocol
     9e0:	4b15      	ldr	r3, [pc, #84]	; (a38 <Receiver+0x2a0>)
     9e2:	781a      	ldrb	r2, [r3, #0]
     9e4:	4b24      	ldr	r3, [pc, #144]	; (a78 <Receiver+0x2e0>)
     9e6:	781b      	ldrb	r3, [r3, #0]
     9e8:	429a      	cmp	r2, r3
     9ea:	d159      	bne.n	aa0 <Receiver+0x308>
				found = 0;
     9ec:	2300      	movs	r3, #0
					if (find_neighbors[i] == sender_id){
     9ee:	4814      	ldr	r0, [pc, #80]	; (a40 <Receiver+0x2a8>)
     9f0:	4c24      	ldr	r4, [pc, #144]	; (a84 <Receiver+0x2ec>)
     9f2:	7806      	ldrb	r6, [r0, #0]
     9f4:	46a4      	mov	ip, r4
				for (i = 0; i < find_neighbor_count; i++){
     9f6:	4618      	mov	r0, r3
     9f8:	4f23      	ldr	r7, [pc, #140]	; (a88 <Receiver+0x2f0>)
     9fa:	491d      	ldr	r1, [pc, #116]	; (a70 <Receiver+0x2d8>)
     9fc:	683a      	ldr	r2, [r7, #0]
				found = 0;
     9fe:	602b      	str	r3, [r5, #0]
				for (i = 0; i < find_neighbor_count; i++){
     a00:	600b      	str	r3, [r1, #0]
     a02:	429a      	cmp	r2, r3
     a04:	469e      	mov	lr, r3
     a06:	dc41      	bgt.n	a8c <Receiver+0x2f4>
     a08:	b100      	cbz	r0, a0c <Receiver+0x274>
     a0a:	600b      	str	r3, [r1, #0]
		if (!found && find_neighbor_count < 25){
     a0c:	2a19      	cmp	r2, #25
     a0e:	d047      	beq.n	aa0 <Receiver+0x308>
			find_neighbors[find_neighbor_count] = sender_id;
     a10:	f80c 6002 	strb.w	r6, [ip, r2]
			find_neighbor_count++;
     a14:	3201      	adds	r2, #1
     a16:	603a      	str	r2, [r7, #0]
     a18:	e042      	b.n	aa0 <Receiver+0x308>
						reply_record[i] = p[8 + i];
     a1a:	f811 3f01 	ldrb.w	r3, [r1, #1]!
     a1e:	f800 3b01 	strb.w	r3, [r0], #1
     a22:	2301      	movs	r3, #1
     a24:	e743      	b.n	8ae <Receiver+0x116>
     a26:	bf00      	nop
     a28:	20000000 	andcs	r0, r0, r0
     a2c:	200005e0 	andcs	r0, r0, r0, ror #11
     a30:	200005d8 	ldrdcs	r0, [r0], -r8
     a34:	200005e4 	andcs	r0, r0, r4, ror #11
     a38:	20000626 	andcs	r0, r0, r6, lsr #12
     a3c:	200005cc 	andcs	r0, r0, ip, asr #11
     a40:	2000062c 	andcs	r0, r0, ip, lsr #12
     a44:	200005f0 	strdcs	r0, [r0], -r0	; <UNPREDICTABLE>
     a48:	200005bc 			; <UNDEFINED> instruction: 0x200005bc
     a4c:	200005d4 	ldrdcs	r0, [r0], -r4
     a50:	2000062d 	andcs	r0, r0, sp, lsr #12
     a54:	200005e8 	andcs	r0, r0, r8, ror #11
     a58:	200005e9 	andcs	r0, r0, r9, ror #11
     a5c:	200005ea 	andcs	r0, r0, sl, ror #11
     a60:	20000625 	andcs	r0, r0, r5, lsr #12
     a64:	20000610 	andcs	r0, r0, r0, lsl r6
     a68:	200005eb 	andcs	r0, r0, fp, ror #11
     a6c:	20000611 	andcs	r0, r0, r1, lsl r6
     a70:	200005c0 	andcs	r0, r0, r0, asr #11
     a74:	2000058c 	andcs	r0, r0, ip, lsl #11
     a78:	200005b5 			; <UNDEFINED> instruction: 0x200005b5
     a7c:	200005ec 	andcs	r0, r0, ip, ror #11
     a80:	200005b8 			; <UNDEFINED> instruction: 0x200005b8
     a84:	2000059c 	mulcs	r0, ip, r5
     a88:	20000598 	mulcs	r0, r8, r5
					if (find_neighbors[i] == sender_id){
     a8c:	f814 8b01 	ldrb.w	r8, [r4], #1
     a90:	3301      	adds	r3, #1
     a92:	45b0      	cmp	r8, r6
     a94:	d11b      	bne.n	ace <Receiver+0x336>
     a96:	b108      	cbz	r0, a9c <Receiver+0x304>
     a98:	f8c1 e000 	str.w	lr, [r1]
						found = 1;
     a9c:	2301      	movs	r3, #1
     a9e:	602b      	str	r3, [r5, #0]
		tcv_endp(packet);
     aa0:	4bb0      	ldr	r3, [pc, #704]	; (d64 <Receiver+0x5cc>)
     aa2:	6818      	ldr	r0, [r3, #0]
     aa4:	f001 fcea 	bl	247c <tcv_endp>
		proceed RECEIVE;
     aa8:	2000      	movs	r0, #0
     aaa:	f001 f9bf 	bl	1e2c <proceed>
		temp_create = -1; // index for create record. 
     aae:	f04f 33ff 	mov.w	r3, #4294967295	; 0xffffffff
     ab2:	4cad      	ldr	r4, [pc, #692]	; (d68 <Receiver+0x5d0>)
			if (database[i].used == 0){
     ab4:	271c      	movs	r7, #28
		temp_create = -1; // index for create record. 
     ab6:	6023      	str	r3, [r4, #0]
		for (i =0; i < 40; i++){
     ab8:	2300      	movs	r3, #0
     aba:	461d      	mov	r5, r3
     abc:	49ab      	ldr	r1, [pc, #684]	; (d6c <Receiver+0x5d4>)
     abe:	4aac      	ldr	r2, [pc, #688]	; (d70 <Receiver+0x5d8>)
     ac0:	600b      	str	r3, [r1, #0]
     ac2:	2b28      	cmp	r3, #40	; 0x28
     ac4:	4618      	mov	r0, r3
     ac6:	d104      	bne.n	ad2 <Receiver+0x33a>
     ac8:	b17d      	cbz	r5, aea <Receiver+0x352>
     aca:	600b      	str	r3, [r1, #0]
     acc:	e00d      	b.n	aea <Receiver+0x352>
     ace:	2001      	movs	r0, #1
     ad0:	e797      	b.n	a02 <Receiver+0x26a>
			if (database[i].used == 0){
     ad2:	fb00 7607 	mla	r6, r0, r7, r7
     ad6:	4416      	add	r6, r2
     ad8:	f816 6c1c 	ldrb.w	r6, [r6, #-28]
     adc:	1c43      	adds	r3, r0, #1
     ade:	2e00      	cmp	r6, #0
     ae0:	f040 80fb 	bne.w	cda <Receiver+0x542>
     ae4:	b105      	cbz	r5, ae8 <Receiver+0x350>
     ae6:	6008      	str	r0, [r1, #0]
				temp_create = i;
     ae8:	6020      	str	r0, [r4, #0]
		if (temp_create < 0){ // if no empty slots in database, will still be -1
     aea:	6825      	ldr	r5, [r4, #0]
     aec:	2d00      	cmp	r5, #0
     aee:	f280 80f6 	bge.w	cde <Receiver+0x546>
			status = STATUS_DB_FULL;
     af2:	2202      	movs	r2, #2
     af4:	4b9f      	ldr	r3, [pc, #636]	; (d74 <Receiver+0x5dc>)
			status = STATUS_SUCCESS;
     af6:	701a      	strb	r2, [r3, #0]
		tcv_endp(packet);
     af8:	4b9a      	ldr	r3, [pc, #616]	; (d64 <Receiver+0x5cc>)
     afa:	6818      	ldr	r0, [r3, #0]
     afc:	f001 fcbe 	bl	247c <tcv_endp>
		proceed SEND_CREATE_RESPONSE;
     b00:	2007      	movs	r0, #7
     b02:	f001 f993 	bl	1e2c <proceed>
		response = tcv_wnp(SEND_CREATE_RESPONSE, sfd, 12); // 11 from main + arg + 4 (6 + 1 + 4); 4 from netword id and CRC
     b06:	499c      	ldr	r1, [pc, #624]	; (d78 <Receiver+0x5e0>)
     b08:	2300      	movs	r3, #0
     b0a:	220c      	movs	r2, #12
     b0c:	6809      	ldr	r1, [r1, #0]
     b0e:	2007      	movs	r0, #7
     b10:	f001 fd9e 	bl	2650 <tcv_wnps>
		response[0] = 0;
     b14:	2400      	movs	r4, #0
		*q++ = (group_ID >> 8) & 0xFF;
     b16:	4a99      	ldr	r2, [pc, #612]	; (d7c <Receiver+0x5e4>)
		response[0] = 0;
     b18:	8004      	strh	r4, [r0, #0]
		*q++ = (group_ID >> 8) & 0xFF;
     b1a:	f9b2 1000 	ldrsh.w	r1, [r2]
     b1e:	f992 2001 	ldrsb.w	r2, [r2, #1]
		*q++ = group_ID & 0xFF;
     b22:	70c1      	strb	r1, [r0, #3]
		*q++ = (group_ID >> 8) & 0xFF;
     b24:	7082      	strb	r2, [r0, #2]
		*q++ = MSG_TYPE_RESPONSE;
     b26:	2205      	movs	r2, #5
     b28:	7102      	strb	r2, [r0, #4]
		*q++ = request_num;
     b2a:	4a95      	ldr	r2, [pc, #596]	; (d80 <Receiver+0x5e8>)
		*q++ = 0;
     b2c:	f100 010a 	add.w	r1, r0, #10
		*q++ = request_num;
     b30:	7812      	ldrb	r2, [r2, #0]
		*q++ = 0;
     b32:	7244      	strb	r4, [r0, #9]
		*q++ = request_num;
     b34:	7142      	strb	r2, [r0, #5]
		*q++ = node_ID;
     b36:	4a93      	ldr	r2, [pc, #588]	; (d84 <Receiver+0x5ec>)
     b38:	6812      	ldr	r2, [r2, #0]
     b3a:	7182      	strb	r2, [r0, #6]
		*q++ = sender_id;
     b3c:	4a92      	ldr	r2, [pc, #584]	; (d88 <Receiver+0x5f0>)
     b3e:	7812      	ldrb	r2, [r2, #0]
     b40:	71c2      	strb	r2, [r0, #7]
		*q++ = status;
     b42:	4a8c      	ldr	r2, [pc, #560]	; (d74 <Receiver+0x5dc>)
     b44:	7812      	ldrb	r2, [r2, #0]
     b46:	7202      	strb	r2, [r0, #8]
		*q++ = 0;
     b48:	4a90      	ldr	r2, [pc, #576]	; (d8c <Receiver+0x5f4>)
     b4a:	6011      	str	r1, [r2, #0]
		tcv_endp(response);
     b4c:	f001 fc96 	bl	247c <tcv_endp>
		proceed RECEIVE;
     b50:	4620      	mov	r0, r4
     b52:	f001 f96b 	bl	1e2c <proceed>
		arg = p[6]; // arg offset
     b56:	4b8e      	ldr	r3, [pc, #568]	; (d90 <Receiver+0x5f8>)
     b58:	4a8e      	ldr	r2, [pc, #568]	; (d94 <Receiver+0x5fc>)
     b5a:	681b      	ldr	r3, [r3, #0]
     b5c:	4885      	ldr	r0, [pc, #532]	; (d74 <Receiver+0x5dc>)
     b5e:	799b      	ldrb	r3, [r3, #6]
		if (arg >= 40 || database[arg].used == 0){
     b60:	2b27      	cmp	r3, #39	; 0x27
		arg = p[6]; // arg offset
     b62:	7013      	strb	r3, [r2, #0]
		if (arg >= 40 || database[arg].used == 0){
     b64:	d807      	bhi.n	b76 <Receiver+0x3de>
     b66:	221c      	movs	r2, #28
     b68:	4353      	muls	r3, r2
     b6a:	4981      	ldr	r1, [pc, #516]	; (d70 <Receiver+0x5d8>)
     b6c:	5cca      	ldrb	r2, [r1, r3]
     b6e:	18cc      	adds	r4, r1, r3
     b70:	2a00      	cmp	r2, #0
     b72:	f040 80de 	bne.w	d32 <Receiver+0x59a>
			status = STATUS_DEL_FAIL; // set status
     b76:	2303      	movs	r3, #3
			status = STATUS_SUCCESS; // successful delete operation
     b78:	7003      	strb	r3, [r0, #0]
		tcv_endp(packet);
     b7a:	4b7a      	ldr	r3, [pc, #488]	; (d64 <Receiver+0x5cc>)
     b7c:	6818      	ldr	r0, [r3, #0]
     b7e:	f001 fc7d 	bl	247c <tcv_endp>
		proceed SEND_DELETE_RESPONSE;
     b82:	2009      	movs	r0, #9
     b84:	f001 f952 	bl	1e2c <proceed>
		response = tcv_wnp(SEND_DELETE_RESPONSE, sfd, 12); // 11 from main + arg + 4(net + crc) + 1 pad
     b88:	497b      	ldr	r1, [pc, #492]	; (d78 <Receiver+0x5e0>)
     b8a:	2300      	movs	r3, #0
     b8c:	220c      	movs	r2, #12
     b8e:	6809      	ldr	r1, [r1, #0]
     b90:	2009      	movs	r0, #9
     b92:	f001 fd5d 	bl	2650 <tcv_wnps>
		response[0] = 0;
     b96:	2400      	movs	r4, #0
		*q++ = (group_ID >> 8) & 0xFF;
     b98:	4a78      	ldr	r2, [pc, #480]	; (d7c <Receiver+0x5e4>)
		response[0] = 0;
     b9a:	8004      	strh	r4, [r0, #0]
		*q++ = (group_ID >> 8) & 0xFF;
     b9c:	f9b2 1000 	ldrsh.w	r1, [r2]
     ba0:	f992 2001 	ldrsb.w	r2, [r2, #1]
		*q++ = group_ID & 0xFF;
     ba4:	70c1      	strb	r1, [r0, #3]
		*q++ = (group_ID >> 8) & 0xFF;
     ba6:	7082      	strb	r2, [r0, #2]
		*q++ = MSG_TYPE_RESPONSE;
     ba8:	2205      	movs	r2, #5
     baa:	7102      	strb	r2, [r0, #4]
		*q++ = request_num;
     bac:	4a74      	ldr	r2, [pc, #464]	; (d80 <Receiver+0x5e8>)
		*q++ = 0;
     bae:	f100 010a 	add.w	r1, r0, #10
		*q++ = request_num;
     bb2:	7812      	ldrb	r2, [r2, #0]
		*q++ = 0;
     bb4:	7244      	strb	r4, [r0, #9]
		*q++ = request_num;
     bb6:	7142      	strb	r2, [r0, #5]
		*q++ = node_ID;
     bb8:	4a72      	ldr	r2, [pc, #456]	; (d84 <Receiver+0x5ec>)
     bba:	6812      	ldr	r2, [r2, #0]
     bbc:	7182      	strb	r2, [r0, #6]
		*q++ = sender_id;
     bbe:	4a72      	ldr	r2, [pc, #456]	; (d88 <Receiver+0x5f0>)
     bc0:	7812      	ldrb	r2, [r2, #0]
     bc2:	71c2      	strb	r2, [r0, #7]
		*q++ = status;
     bc4:	4a6b      	ldr	r2, [pc, #428]	; (d74 <Receiver+0x5dc>)
     bc6:	7812      	ldrb	r2, [r2, #0]
     bc8:	7202      	strb	r2, [r0, #8]
		*q++ = 0;
     bca:	4a70      	ldr	r2, [pc, #448]	; (d8c <Receiver+0x5f4>)
     bcc:	6011      	str	r1, [r2, #0]
		tcv_endp(response);
     bce:	f001 fc55 	bl	247c <tcv_endp>
		proceed RECEIVE;
     bd2:	4620      	mov	r0, r4
     bd4:	f001 f92a 	bl	1e2c <proceed>
		arg = p[6]; // get the index you try to retrieve
     bd8:	4b6d      	ldr	r3, [pc, #436]	; (d90 <Receiver+0x5f8>)
     bda:	4a6e      	ldr	r2, [pc, #440]	; (d94 <Receiver+0x5fc>)
     bdc:	681b      	ldr	r3, [r3, #0]
     bde:	799b      	ldrb	r3, [r3, #6]
		if (arg >= 40 || database[arg].used == 0){
     be0:	2b27      	cmp	r3, #39	; 0x27
		arg = p[6]; // get the index you try to retrieve
     be2:	7013      	strb	r3, [r2, #0]
		if (arg >= 40 || database[arg].used == 0){
     be4:	f200 80b2 	bhi.w	d4c <Receiver+0x5b4>
     be8:	221c      	movs	r2, #28
     bea:	4353      	muls	r3, r2
     bec:	4a60      	ldr	r2, [pc, #384]	; (d70 <Receiver+0x5d8>)
     bee:	5cd3      	ldrb	r3, [r2, r3]
			status = STATUS_SUCCESS;
     bf0:	2b00      	cmp	r3, #0
     bf2:	bf0c      	ite	eq
     bf4:	2304      	moveq	r3, #4
     bf6:	2301      	movne	r3, #1
     bf8:	4c5e      	ldr	r4, [pc, #376]	; (d74 <Receiver+0x5dc>)
     bfa:	7023      	strb	r3, [r4, #0]
		tcv_endp(packet);
     bfc:	4b59      	ldr	r3, [pc, #356]	; (d64 <Receiver+0x5cc>)
     bfe:	6818      	ldr	r0, [r3, #0]
     c00:	f001 fc3c 	bl	247c <tcv_endp>
		if (status == STATUS_SUCCESS){
     c04:	7823      	ldrb	r3, [r4, #0]
     c06:	2b01      	cmp	r3, #1
			proceed SEND_RETRIEVE_OK_RESP;
     c08:	bf0c      	ite	eq
     c0a:	200b      	moveq	r0, #11
			proceed SEND_RETRIEVE_FAIL_RESP;
     c0c:	200c      	movne	r0, #12
     c0e:	f001 f90d 	bl	1e2c <proceed>
		response = tcv_wnp(SEND_RETRIEVE_OK_RESP, sfd, 32);
     c12:	4959      	ldr	r1, [pc, #356]	; (d78 <Receiver+0x5e0>)
     c14:	2300      	movs	r3, #0
     c16:	2220      	movs	r2, #32
     c18:	6809      	ldr	r1, [r1, #0]
     c1a:	200b      	movs	r0, #11
     c1c:	f001 fd18 	bl	2650 <tcv_wnps>
		response[0] = 0;
     c20:	2300      	movs	r3, #0
		*q++ = (group_ID >> 8) & 0xFF;
     c22:	4a56      	ldr	r2, [pc, #344]	; (d7c <Receiver+0x5e4>)
		response[0] = 0;
     c24:	8003      	strh	r3, [r0, #0]
		*q++ = (group_ID >> 8) & 0xFF;
     c26:	f9b2 1000 	ldrsh.w	r1, [r2]
     c2a:	f992 2001 	ldrsb.w	r2, [r2, #1]
		*q++ = group_ID & 0xFF;
     c2e:	70c1      	strb	r1, [r0, #3]
		*q++ = (group_ID >> 8) & 0xFF;
     c30:	7082      	strb	r2, [r0, #2]
		*q++ = MSG_TYPE_RESPONSE;
     c32:	2205      	movs	r2, #5
     c34:	7102      	strb	r2, [r0, #4]
		*q++ = request_num;
     c36:	4a52      	ldr	r2, [pc, #328]	; (d80 <Receiver+0x5e8>)
     c38:	271c      	movs	r7, #28
     c3a:	7812      	ldrb	r2, [r2, #0]
		*q++ = 0;
     c3c:	4601      	mov	r1, r0
		*q++ = request_num;
     c3e:	7142      	strb	r2, [r0, #5]
		*q++ = node_ID;
     c40:	4a50      	ldr	r2, [pc, #320]	; (d84 <Receiver+0x5ec>)
		*q++ = 0;
     c42:	4d52      	ldr	r5, [pc, #328]	; (d8c <Receiver+0x5f4>)
		*q++ = node_ID;
     c44:	6812      	ldr	r2, [r2, #0]
		for (i=0; i < 20; i++){
     c46:	4c49      	ldr	r4, [pc, #292]	; (d6c <Receiver+0x5d4>)
		*q++ = node_ID;
     c48:	7182      	strb	r2, [r0, #6]
		*q++ = sender_id;
     c4a:	4a4f      	ldr	r2, [pc, #316]	; (d88 <Receiver+0x5f0>)
		for (i=0; i < 20; i++){
     c4c:	6023      	str	r3, [r4, #0]
		*q++ = sender_id;
     c4e:	7812      	ldrb	r2, [r2, #0]
     c50:	71c2      	strb	r2, [r0, #7]
		*q++ = STATUS_SUCCESS; // ok status to response
     c52:	2201      	movs	r2, #1
     c54:	7202      	strb	r2, [r0, #8]
		*q++ = 0;
     c56:	f100 020a 	add.w	r2, r0, #10
     c5a:	602a      	str	r2, [r5, #0]
			*q++ = database[arg].record[i];
     c5c:	4a4d      	ldr	r2, [pc, #308]	; (d94 <Receiver+0x5fc>)
		*q++ = 0;
     c5e:	f801 3f09 	strb.w	r3, [r1, #9]!
		for (i=0; i < 20; i++){
     c62:	7816      	ldrb	r6, [r2, #0]
     c64:	4a42      	ldr	r2, [pc, #264]	; (d70 <Receiver+0x5d8>)
     c66:	fb07 2206 	mla	r2, r7, r6, r2
     c6a:	f100 061d 	add.w	r6, r0, #29
     c6e:	3208      	adds	r2, #8
     c70:	428e      	cmp	r6, r1
     c72:	d16d      	bne.n	d50 <Receiver+0x5b8>
     c74:	f100 021e 	add.w	r2, r0, #30
     c78:	b113      	cbz	r3, c80 <Receiver+0x4e8>
     c7a:	2314      	movs	r3, #20
     c7c:	602a      	str	r2, [r5, #0]
     c7e:	6023      	str	r3, [r4, #0]
		tcv_endp(response);
     c80:	f001 fbfc 	bl	247c <tcv_endp>
		proceed RECEIVE;
     c84:	2000      	movs	r0, #0
     c86:	f001 f8d1 	bl	1e2c <proceed>
		response = tcv_wnp(SEND_RETRIEVE_FAIL_RESP, sfd, 12);
     c8a:	220c      	movs	r2, #12
     c8c:	493a      	ldr	r1, [pc, #232]	; (d78 <Receiver+0x5e0>)
     c8e:	2300      	movs	r3, #0
     c90:	4610      	mov	r0, r2
     c92:	6809      	ldr	r1, [r1, #0]
     c94:	f001 fcdc 	bl	2650 <tcv_wnps>
		response[0] = 0;
     c98:	2400      	movs	r4, #0
		*q++ = (group_ID >> 8) & 0xFF;
     c9a:	4a38      	ldr	r2, [pc, #224]	; (d7c <Receiver+0x5e4>)
		response[0] = 0;
     c9c:	8004      	strh	r4, [r0, #0]
		*q++ = (group_ID >> 8) & 0xFF;
     c9e:	f9b2 1000 	ldrsh.w	r1, [r2]
     ca2:	f992 2001 	ldrsb.w	r2, [r2, #1]
		*q++ = group_ID & 0xFF;
     ca6:	70c1      	strb	r1, [r0, #3]
		*q++ = (group_ID >> 8) & 0xFF;
     ca8:	7082      	strb	r2, [r0, #2]
		*q++ = MSG_TYPE_RESPONSE;
     caa:	2205      	movs	r2, #5
     cac:	7102      	strb	r2, [r0, #4]
		*q++ = request_num;
     cae:	4a34      	ldr	r2, [pc, #208]	; (d80 <Receiver+0x5e8>)
		*q++ = STATUS_RETRIEVE_FAIL; // retrieve fail to response
     cb0:	f100 0109 	add.w	r1, r0, #9
		*q++ = request_num;
     cb4:	7812      	ldrb	r2, [r2, #0]
     cb6:	7142      	strb	r2, [r0, #5]
		*q++ = node_ID;
     cb8:	4a32      	ldr	r2, [pc, #200]	; (d84 <Receiver+0x5ec>)
     cba:	6812      	ldr	r2, [r2, #0]
     cbc:	7182      	strb	r2, [r0, #6]
		*q++ = sender_id;
     cbe:	4a32      	ldr	r2, [pc, #200]	; (d88 <Receiver+0x5f0>)
     cc0:	7812      	ldrb	r2, [r2, #0]
     cc2:	71c2      	strb	r2, [r0, #7]
		*q++ = STATUS_RETRIEVE_FAIL; // retrieve fail to response
     cc4:	4a31      	ldr	r2, [pc, #196]	; (d8c <Receiver+0x5f4>)
     cc6:	6011      	str	r1, [r2, #0]
     cc8:	2204      	movs	r2, #4
     cca:	7202      	strb	r2, [r0, #8]
		tcv_endp(response);
     ccc:	f001 fbd6 	bl	247c <tcv_endp>
		proceed RECEIVE;
     cd0:	4620      	mov	r0, r4
}
     cd2:	e8bd 4ff8 	ldmia.w	sp!, {r3, r4, r5, r6, r7, r8, r9, sl, fp, lr}
		proceed RECEIVE;
     cd6:	f001 b8a9 	b.w	1e2c <proceed>
     cda:	2501      	movs	r5, #1
     cdc:	e6f1      	b.n	ac2 <Receiver+0x32a>
			database[temp_create].used = 1;
     cde:	231c      	movs	r3, #28
     ce0:	2401      	movs	r4, #1
     ce2:	436b      	muls	r3, r5
     ce4:	54d4      	strb	r4, [r2, r3]
			database[temp_create].owner_id = sender_id;
     ce6:	4c28      	ldr	r4, [pc, #160]	; (d88 <Receiver+0x5f0>)
			database[temp_create].used = 1;
     ce8:	18d0      	adds	r0, r2, r3
			database[temp_create].owner_id = sender_id;
     cea:	7824      	ldrb	r4, [r4, #0]
     cec:	3308      	adds	r3, #8
     cee:	7044      	strb	r4, [r0, #1]
{
    //
    // The following read gets the seconds, but also latches the fractional
    // part.
    //
    return(HWREG(AON_RTC_BASE + AON_RTC_O_SEC));
     cf0:	4c29      	ldr	r4, [pc, #164]	; (d98 <Receiver+0x600>)
     cf2:	4413      	add	r3, r2
     cf4:	68a4      	ldr	r4, [r4, #8]
			database[temp_create].timestamp = seconds();
     cf6:	6044      	str	r4, [r0, #4]
			for (i = 0; i < 20; i++){
     cf8:	2000      	movs	r0, #0
				database[temp_create].record[i] = p[6 + i]; // 6 from offset for record in packet
     cfa:	4c25      	ldr	r4, [pc, #148]	; (d90 <Receiver+0x5f8>)
			for (i = 0; i < 20; i++){
     cfc:	6008      	str	r0, [r1, #0]
				database[temp_create].record[i] = p[6 + i]; // 6 from offset for record in packet
     cfe:	6824      	ldr	r4, [r4, #0]
     d00:	1d66      	adds	r6, r4, #5
     d02:	3419      	adds	r4, #25
			for (i = 0; i < 20; i++){
     d04:	42a6      	cmp	r6, r4
     d06:	d10e      	bne.n	d26 <Receiver+0x58e>
     d08:	b108      	cbz	r0, d0e <Receiver+0x576>
     d0a:	2314      	movs	r3, #20
     d0c:	600b      	str	r3, [r1, #0]
			database[temp_create].record[20 - 1] = '\0';
     d0e:	231c      	movs	r3, #28
     d10:	fb03 2205 	mla	r2, r3, r5, r2
     d14:	2300      	movs	r3, #0
     d16:	76d3      	strb	r3, [r2, #27]
			stored_records++;
     d18:	4a20      	ldr	r2, [pc, #128]	; (d9c <Receiver+0x604>)
     d1a:	6813      	ldr	r3, [r2, #0]
     d1c:	3301      	adds	r3, #1
     d1e:	6013      	str	r3, [r2, #0]
			status = STATUS_SUCCESS;
     d20:	2201      	movs	r2, #1
     d22:	4b14      	ldr	r3, [pc, #80]	; (d74 <Receiver+0x5dc>)
     d24:	e6e7      	b.n	af6 <Receiver+0x35e>
				database[temp_create].record[i] = p[6 + i]; // 6 from offset for record in packet
     d26:	f816 0f01 	ldrb.w	r0, [r6, #1]!
     d2a:	f803 0b01 	strb.w	r0, [r3], #1
     d2e:	2001      	movs	r0, #1
     d30:	e7e8      	b.n	d04 <Receiver+0x56c>
			database[arg].used = 0;
     d32:	2200      	movs	r2, #0
     d34:	52ca      	strh	r2, [r1, r3]
			database[arg].timestamp = 0;
     d36:	6062      	str	r2, [r4, #4]
			database[arg].record[0] = '\0';
     d38:	7222      	strb	r2, [r4, #8]
			if (stored_records > 0){
     d3a:	4a18      	ldr	r2, [pc, #96]	; (d9c <Receiver+0x604>)
     d3c:	6813      	ldr	r3, [r2, #0]
     d3e:	2b00      	cmp	r3, #0
				stored_records--;
     d40:	bfc4      	itt	gt
     d42:	f103 33ff 	addgt.w	r3, r3, #4294967295	; 0xffffffff
     d46:	6013      	strgt	r3, [r2, #0]
			status = STATUS_SUCCESS; // successful delete operation
     d48:	2301      	movs	r3, #1
     d4a:	e715      	b.n	b78 <Receiver+0x3e0>
			status = STATUS_RETRIEVE_FAIL; // empty status
     d4c:	2304      	movs	r3, #4
     d4e:	e753      	b.n	bf8 <Receiver+0x460>
			*q++ = database[arg].record[i];
     d50:	f812 3b01 	ldrb.w	r3, [r2], #1
     d54:	f801 3f01 	strb.w	r3, [r1, #1]!
     d58:	2301      	movs	r3, #1
     d5a:	e789      	b.n	c70 <Receiver+0x4d8>
}
     d5c:	e8bd 4ff8 	ldmia.w	sp!, {r3, r4, r5, r6, r7, r8, r9, sl, fp, lr}
     d60:	f000 bfdc 	b.w	1d1c <__pi_badstate>
     d64:	200005e0 	andcs	r0, r0, r0, ror #11
     d68:	20000638 	andcs	r0, r0, r8, lsr r6
     d6c:	200005c0 	andcs	r0, r0, r0, asr #11
     d70:	20000114 	andcs	r0, r0, r4, lsl r1
     d74:	2000062d 	andcs	r0, r0, sp, lsr #12
     d78:	20000000 	andcs	r0, r0, r0
     d7c:	200005bc 			; <UNDEFINED> instruction: 0x200005bc
     d80:	20000626 	andcs	r0, r0, r6, lsr #12
     d84:	200005d4 	ldrdcs	r0, [r0], -r4
     d88:	2000062c 	andcs	r0, r0, ip, lsr #12
     d8c:	200005ec 	andcs	r0, r0, ip, ror #11
     d90:	200005d8 	ldrdcs	r0, [r0], -r8
     d94:	2000010c 	andcs	r0, r0, ip, lsl #2
     d98:	40092000 	andmi	r2, r9, r0
     d9c:	20000630 	andcs	r0, r0, r0, lsr r6

00000da0 <root>:

fsm root
     da0:	b537      	push	{r0, r1, r2, r4, r5, lr}
     da2:	2816      	cmp	r0, #22
     da4:	f200 815e 	bhi.w	1064 <root+0x2c4>
     da8:	e8df f010 	tbh	[pc, r0, lsl #1]
     dac:	00430017 	subeq	r0, r3, r7, lsl r0
     db0:	005b0054 	subseq	r0, fp, r4, asr r0
     db4:	006e0065 	rsbeq	r0, lr, r5, rrx
     db8:	00a00097 	umlaleq	r0, r0, r7, r0	; <UNPREDICTABLE>
     dbc:	00b200a9 	adcseq	r0, r2, r9, lsr #1
     dc0:	00c100b8 	strheq	r0, [r1], #8
     dc4:	00d000c7 	sbcseq	r0, r0, r7, asr #1
     dc8:	00dd00d6 	ldrsbeq	r0, [sp], #6
     dcc:	00ef00e5 	rsceq	r0, pc, r5, ror #1
     dd0:	010d00f6 	strdeq	r0, [sp, -r6]
     dd4:	01200116 			; <UNDEFINED> instruction: 0x01200116
     dd8:	21fa0144 	mvnscs	r0, r4, asr #2
	int db_print_index;

	int temp; int i;

	state Init:
		phys_cc1350 (0, MAX_PACKET_LENGTH);
     ddc:	2000      	movs	r0, #0
     dde:	f002 fb41 	bl	3464 <phys_cc1350>
		
		tcv_plug (0, &plug_null);
     de2:	49a3      	ldr	r1, [pc, #652]	; (1070 <root+0x2d0>)
     de4:	2000      	movs	r0, #0
     de6:	f001 fbe1 	bl	25ac <tcv_plug>
		sfd = tcv_open(WNONE, 0, 0);
     dea:	2200      	movs	r2, #0
     dec:	f64f 70ff 	movw	r0, #65535	; 0xffff
     df0:	4611      	mov	r1, r2
     df2:	f001 fb7b 	bl	24ec <tcv_open>
     df6:	4c9f      	ldr	r4, [pc, #636]	; (1074 <root+0x2d4>)
		tcv_control (sfd, PHYSOPT_ON, NULL);
     df8:	2200      	movs	r2, #0
     dfa:	2104      	movs	r1, #4
		sfd = tcv_open(WNONE, 0, 0);
     dfc:	6020      	str	r0, [r4, #0]
		tcv_control (sfd, PHYSOPT_ON, NULL);
     dfe:	f001 fc9b 	bl	2738 <tcv_control>
		
		if (sfd < 0)
     e02:	6823      	ldr	r3, [r4, #0]
     e04:	2b00      	cmp	r3, #0
     e06:	da04      	bge.n	e12 <root+0x72>
		{
			diag("Cannot open tcv interface");
     e08:	489b      	ldr	r0, [pc, #620]	; (1078 <root+0x2d8>)
     e0a:	f001 f9f7 	bl	21fc <diag>
			halt();
     e0e:	f000 fed1 	bl	1bb4 <halt>
		}

		stored_records = 0;
     e12:	2100      	movs	r1, #0
		max_records = 40;
     e14:	2228      	movs	r2, #40	; 0x28
		stored_records = 0;
     e16:	4b99      	ldr	r3, [pc, #612]	; (107c <root+0x2dc>)

		create_finished = 0;
		retrieve_finished = 0;

		runfsm Receiver;
     e18:	4899      	ldr	r0, [pc, #612]	; (1080 <root+0x2e0>)
		stored_records = 0;
     e1a:	6019      	str	r1, [r3, #0]
		max_records = 40;
     e1c:	4b99      	ldr	r3, [pc, #612]	; (1084 <root+0x2e4>)
     e1e:	601a      	str	r2, [r3, #0]
		create_finished = 0;
     e20:	4b99      	ldr	r3, [pc, #612]	; (1088 <root+0x2e8>)
     e22:	6019      	str	r1, [r3, #0]
		retrieve_finished = 0;
     e24:	4b99      	ldr	r3, [pc, #612]	; (108c <root+0x2ec>)
     e26:	6019      	str	r1, [r3, #0]
		runfsm Receiver;
     e28:	f001 f9c2 	bl	21b0 <__pi_fork>
		//runfsm Find_Receiver;

		proceed Menu_Print;
     e2c:	2001      	movs	r0, #1
     e2e:	f000 fffd 	bl	1e2c <proceed>
	
	
	state Menu_Print:
		ser_outf(Menu_Print, "\r\n\nGroup %d Device #%d (%d/%d records)", group_ID, node_ID, stored_records, 40);
     e32:	2328      	movs	r3, #40	; 0x28
     e34:	9301      	str	r3, [sp, #4]
     e36:	4b91      	ldr	r3, [pc, #580]	; (107c <root+0x2dc>)
     e38:	4a95      	ldr	r2, [pc, #596]	; (1090 <root+0x2f0>)
     e3a:	681b      	ldr	r3, [r3, #0]
     e3c:	2001      	movs	r0, #1
     e3e:	9300      	str	r3, [sp, #0]
     e40:	4b94      	ldr	r3, [pc, #592]	; (1094 <root+0x2f4>)
     e42:	f9b2 2000 	ldrsh.w	r2, [r2]
     e46:	681b      	ldr	r3, [r3, #0]
     e48:	4993      	ldr	r1, [pc, #588]	; (1098 <root+0x2f8>)
     e4a:	f001 fefb 	bl	2c44 <ser_outf>
		proceed Menu_Print2;
     e4e:	2002      	movs	r0, #2
     e50:	f000 ffec 	bl	1e2c <proceed>
	state Menu_Print2:
		ser_out( Menu_Print2,
     e54:	2002      	movs	r0, #2
     e56:	4991      	ldr	r1, [pc, #580]	; (109c <root+0x2fc>)
     e58:	f001 fe82 	bl	2b60 <ser_out>
			"\r\n(D)elete record on neighbor"
			"\r\n(R)etrieve record from neighbour"
			"\r\n(S)how local records"
			"\r\nR(e)set local storage"
			"\r\n\r\nSelection: ");
		proceed Read_Choice;
     e5c:	2003      	movs	r0, #3
     e5e:	f000 ffe5 	bl	1e2c <proceed>
	
	state Read_Choice:
		choice = '0';
     e62:	2330      	movs	r3, #48	; 0x30
     e64:	4a8e      	ldr	r2, [pc, #568]	; (10a0 <root+0x300>)
		// read the user input 
		ser_inf(Read_Choice, "%c", &choice);
     e66:	2003      	movs	r0, #3
     e68:	498e      	ldr	r1, [pc, #568]	; (10a4 <root+0x304>)
		choice = '0';
     e6a:	7013      	strb	r3, [r2, #0]
		ser_inf(Read_Choice, "%c", &choice);
     e6c:	f001 ff14 	bl	2c98 <ser_inf>
		proceed Read_Choice_Print;
     e70:	2004      	movs	r0, #4
     e72:	f000 ffdb 	bl	1e2c <proceed>

	state Read_Choice_Print:
		ser_outf(Read_Choice_Print, "%c\r\n", choice);
     e76:	4b8a      	ldr	r3, [pc, #552]	; (10a0 <root+0x300>)
     e78:	2004      	movs	r0, #4
     e7a:	781a      	ldrb	r2, [r3, #0]
     e7c:	498a      	ldr	r1, [pc, #552]	; (10a8 <root+0x308>)
     e7e:	f001 fee1 	bl	2c44 <ser_outf>
		proceed Read_Choice_Process;
     e82:	2005      	movs	r0, #5
     e84:	f000 ffd2 	bl	1e2c <proceed>
	
	state Read_Choice_Process:
		
		// if "G" or "g", state Ask_Group_ID
		if ((choice == 'G') || (choice == 'g'))
     e88:	4b85      	ldr	r3, [pc, #532]	; (10a0 <root+0x300>)
     e8a:	781b      	ldrb	r3, [r3, #0]
     e8c:	f003 03df 	and.w	r3, r3, #223	; 0xdf
     e90:	2b47      	cmp	r3, #71	; 0x47
     e92:	d104      	bne.n	e9e <root+0xfe>
		{
			proceed Ask_Group_ID;	
     e94:	200e      	movs	r0, #14
		}
		
		// any other input, show menu again
		else
		{
			proceed Menu_Print;
     e96:	f000 ffc9 	bl	1e2c <proceed>
		}

		release;
     e9a:	f000 fd57 	bl	194c <__pi_release>
		else if ((choice == 'N') || (choice == 'n'))
     e9e:	2b4e      	cmp	r3, #78	; 0x4e
     ea0:	d101      	bne.n	ea6 <root+0x106>
			proceed Ask_Node_ID;	
     ea2:	2011      	movs	r0, #17
     ea4:	e7f7      	b.n	e96 <root+0xf6>
		else if ((choice == 'F') || (choice == 'f'))
     ea6:	2b46      	cmp	r3, #70	; 0x46
     ea8:	d101      	bne.n	eae <root+0x10e>
			proceed Handle_Find;
     eaa:	200c      	movs	r0, #12
     eac:	e7f3      	b.n	e96 <root+0xf6>
		else if ((choice == 'C') || (choice == 'c'))
     eae:	2b43      	cmp	r3, #67	; 0x43
     eb0:	d101      	bne.n	eb6 <root+0x116>
			proceed Handle_Create;
     eb2:	2006      	movs	r0, #6
     eb4:	e7ef      	b.n	e96 <root+0xf6>
		else if ((choice == 'D') || (choice == 'd'))
     eb6:	2b44      	cmp	r3, #68	; 0x44
     eb8:	d101      	bne.n	ebe <root+0x11e>
			proceed Handle_Delete;
     eba:	200a      	movs	r0, #10
     ebc:	e7eb      	b.n	e96 <root+0xf6>
		else if ((choice == 'R') || (choice == 'r'))
     ebe:	2b52      	cmp	r3, #82	; 0x52
     ec0:	d101      	bne.n	ec6 <root+0x126>
			proceed Handle_Retrieve;
     ec2:	2008      	movs	r0, #8
     ec4:	e7e7      	b.n	e96 <root+0xf6>
		else if ((choice == 'S') || (choice == 's'))
     ec6:	2b53      	cmp	r3, #83	; 0x53
     ec8:	d101      	bne.n	ece <root+0x12e>
			proceed Show_LocalDB;
     eca:	2014      	movs	r0, #20
     ecc:	e7e3      	b.n	e96 <root+0xf6>
		else if ((choice == 'E') || (choice == 'e'))
     ece:	2b45      	cmp	r3, #69	; 0x45
     ed0:	d101      	bne.n	ed6 <root+0x136>
			proceed Reset_DB;
     ed2:	2016      	movs	r0, #22
     ed4:	e7df      	b.n	e96 <root+0xf6>
			proceed Menu_Print;
     ed6:	2001      	movs	r0, #1
     ed8:	e7dd      	b.n	e96 <root+0xf6>
		// Run a state to wait for their process to finish
		// Follows by displaying menu again


	state Handle_Create:
		create_finished = 0;
     eda:	2100      	movs	r1, #0
     edc:	4b6a      	ldr	r3, [pc, #424]	; (1088 <root+0x2e8>)
		runfsm Create;
     ede:	4873      	ldr	r0, [pc, #460]	; (10ac <root+0x30c>)
		create_finished = 0;
     ee0:	6019      	str	r1, [r3, #0]
		runfsm Create;
     ee2:	f001 f965 	bl	21b0 <__pi_fork>
		proceed Wait_Create_Finish;
     ee6:	2007      	movs	r0, #7
     ee8:	f000 ffa0 	bl	1e2c <proceed>

	state Wait_Create_Finish:
		if (create_finished == 1){
     eec:	4b66      	ldr	r3, [pc, #408]	; (1088 <root+0x2e8>)
     eee:	681b      	ldr	r3, [r3, #0]
     ef0:	2b01      	cmp	r3, #1
     ef2:	d0f0      	beq.n	ed6 <root+0x136>
			proceed Menu_Print;
		}
		else{
			delay(100, Wait_Create_Finish);		
     ef4:	2107      	movs	r1, #7
	state Wait_Find_Finish:
		if (find_complete == 1) {
			proceed Menu_Print;
		}
		else{
			delay(100, Wait_Find_Finish);
     ef6:	2064      	movs	r0, #100	; 0x64
     ef8:	f000 ffe8 	bl	1ecc <delay>
     efc:	e7cd      	b.n	e9a <root+0xfa>
		retrieve_finished=  0;
     efe:	2100      	movs	r1, #0
     f00:	4b62      	ldr	r3, [pc, #392]	; (108c <root+0x2ec>)
		runfsm Retrieve;
     f02:	486b      	ldr	r0, [pc, #428]	; (10b0 <root+0x310>)
		retrieve_finished=  0;
     f04:	6019      	str	r1, [r3, #0]
		runfsm Retrieve;
     f06:	f001 f953 	bl	21b0 <__pi_fork>
		proceed Wait_Retrieve_Finish;
     f0a:	2009      	movs	r0, #9
     f0c:	f000 ff8e 	bl	1e2c <proceed>
		if(retrieve_finished == 1){
     f10:	4b5e      	ldr	r3, [pc, #376]	; (108c <root+0x2ec>)
     f12:	681b      	ldr	r3, [r3, #0]
     f14:	2b01      	cmp	r3, #1
     f16:	d0de      	beq.n	ed6 <root+0x136>
			delay(100, Wait_Retrieve_Finish);
     f18:	2109      	movs	r1, #9
     f1a:	e7ec      	b.n	ef6 <root+0x156>
		delete_finished = 0;
     f1c:	2100      	movs	r1, #0
     f1e:	4b65      	ldr	r3, [pc, #404]	; (10b4 <root+0x314>)
		runfsm Delete;
     f20:	4865      	ldr	r0, [pc, #404]	; (10b8 <root+0x318>)
		delete_finished = 0;
     f22:	6019      	str	r1, [r3, #0]
		runfsm Delete;
     f24:	f001 f944 	bl	21b0 <__pi_fork>
		proceed Wait_Delete_Finish;
     f28:	200b      	movs	r0, #11
     f2a:	f000 ff7f 	bl	1e2c <proceed>
		if (delete_finished == 1) {
     f2e:	4b61      	ldr	r3, [pc, #388]	; (10b4 <root+0x314>)
     f30:	681b      	ldr	r3, [r3, #0]
     f32:	2b01      	cmp	r3, #1
     f34:	d0cf      	beq.n	ed6 <root+0x136>
			delay(100,Wait_Delete_Finish);
     f36:	210b      	movs	r1, #11
     f38:	e7dd      	b.n	ef6 <root+0x156>
		find_complete = 0;
     f3a:	2100      	movs	r1, #0
     f3c:	4b5f      	ldr	r3, [pc, #380]	; (10bc <root+0x31c>)
		runfsm Find;
     f3e:	4860      	ldr	r0, [pc, #384]	; (10c0 <root+0x320>)
		find_complete = 0;
     f40:	6019      	str	r1, [r3, #0]
		runfsm Find;
     f42:	f001 f935 	bl	21b0 <__pi_fork>
		proceed Wait_Find_Finish;
     f46:	200d      	movs	r0, #13
     f48:	f000 ff70 	bl	1e2c <proceed>
		if (find_complete == 1) {
     f4c:	4b5b      	ldr	r3, [pc, #364]	; (10bc <root+0x31c>)
     f4e:	681b      	ldr	r3, [r3, #0]
     f50:	2b01      	cmp	r3, #1
     f52:	d0c0      	beq.n	ed6 <root+0x136>
			delay(100, Wait_Find_Finish);
     f54:	210d      	movs	r1, #13
     f56:	e7ce      	b.n	ef6 <root+0x156>
	
		
		// NEW GROUP ID
	state Ask_Group_ID:
		// ask for group ID 
		ser_out(Ask_Group_ID, "Enter Group ID: ");
     f58:	200e      	movs	r0, #14
     f5a:	495a      	ldr	r1, [pc, #360]	; (10c4 <root+0x324>)
     f5c:	f001 fe00 	bl	2b60 <ser_out>
		proceed Ask_Group_ID_In;
     f60:	200f      	movs	r0, #15
     f62:	f000 ff63 	bl	1e2c <proceed>
	state Ask_Group_ID_In:
		ser_inf(Ask_Group_ID_In, "%d", (int*)&group_ID);
     f66:	200f      	movs	r0, #15
     f68:	4a49      	ldr	r2, [pc, #292]	; (1090 <root+0x2f0>)
     f6a:	4957      	ldr	r1, [pc, #348]	; (10c8 <root+0x328>)
     f6c:	f001 fe94 	bl	2c98 <ser_inf>
		proceed Group_Id_Finish;
     f70:	2010      	movs	r0, #16
     f72:	f000 ff5b 	bl	1e2c <proceed>
	state Group_Id_Finish:
		ser_outf(Group_Id_Finish, "%d\r\n\r\n", group_ID);
     f76:	4b46      	ldr	r3, [pc, #280]	; (1090 <root+0x2f0>)
     f78:	2010      	movs	r0, #16
     f7a:	f9b3 2000 	ldrsh.w	r2, [r3]
     f7e:	4953      	ldr	r1, [pc, #332]	; (10cc <root+0x32c>)
     f80:	f001 fe60 	bl	2c44 <ser_outf>
		proceed Menu_Print;
     f84:	2001      	movs	r0, #1
     f86:	f000 ff51 	bl	1e2c <proceed>

		// NEW NODE ID
	state Ask_Node_ID:
		// ask for Node ID 
		ser_out(Ask_Node_ID, "Enter Node ID: ");
     f8a:	2011      	movs	r0, #17
     f8c:	4950      	ldr	r1, [pc, #320]	; (10d0 <root+0x330>)
     f8e:	f001 fde7 	bl	2b60 <ser_out>
		proceed Ask_Node_ID_In;
     f92:	2012      	movs	r0, #18
     f94:	f000 ff4a 	bl	1e2c <proceed>

	state Ask_Node_ID_In:

		ser_inf(Ask_Node_ID_In, "%d", &temp);
     f98:	4c4e      	ldr	r4, [pc, #312]	; (10d4 <root+0x334>)
     f9a:	2012      	movs	r0, #18
     f9c:	4622      	mov	r2, r4
     f9e:	494a      	ldr	r1, [pc, #296]	; (10c8 <root+0x328>)
     fa0:	f001 fe7a 	bl	2c98 <ser_inf>

		if (temp < 1 || temp > 25) {
     fa4:	6823      	ldr	r3, [r4, #0]
     fa6:	3b01      	subs	r3, #1
     fa8:	2b18      	cmp	r3, #24
     faa:	d906      	bls.n	fba <root+0x21a>
			ser_out(Ask_Node_ID_In, "\r\nInvalid Node ID\r\n");
     fac:	2012      	movs	r0, #18
     fae:	494a      	ldr	r1, [pc, #296]	; (10d8 <root+0x338>)
     fb0:	f001 fdd6 	bl	2b60 <ser_out>
			proceed Menu_Print;
     fb4:	2001      	movs	r0, #1
     fb6:	f000 ff39 	bl	1e2c <proceed>
		}
		node_ID = temp;
     fba:	6822      	ldr	r2, [r4, #0]
     fbc:	4b35      	ldr	r3, [pc, #212]	; (1094 <root+0x2f4>)
		proceed Node_Id_Finish;
     fbe:	2013      	movs	r0, #19
		node_ID = temp;
     fc0:	601a      	str	r2, [r3, #0]
		proceed Node_Id_Finish;
     fc2:	f000 ff33 	bl	1e2c <proceed>
		
	state Node_Id_Finish:
		ser_outf(Node_Id_Finish, "%d\r\n\r\n", node_ID);
     fc6:	4b33      	ldr	r3, [pc, #204]	; (1094 <root+0x2f4>)
     fc8:	2013      	movs	r0, #19
     fca:	681a      	ldr	r2, [r3, #0]
     fcc:	493f      	ldr	r1, [pc, #252]	; (10cc <root+0x32c>)
     fce:	f001 fe39 	bl	2c44 <ser_outf>
		proceed Menu_Print;
     fd2:	2001      	movs	r0, #1
     fd4:	f000 ff2a 	bl	1e2c <proceed>
		
	state Show_LocalDB:
		// user chose "S" or "s", 
		// format: index    Time Stamp     owner ID     Record Data
		db_print_index = 0;
     fd8:	2200      	movs	r2, #0
     fda:	4b40      	ldr	r3, [pc, #256]	; (10dc <root+0x33c>)
		ser_out(Show_LocalDB, "\r\nIndex\tTime Stamp\tOwner ID\tRecord Data\r\n");
     fdc:	2014      	movs	r0, #20
     fde:	4940      	ldr	r1, [pc, #256]	; (10e0 <root+0x340>)
		db_print_index = 0;
     fe0:	601a      	str	r2, [r3, #0]
		ser_out(Show_LocalDB, "\r\nIndex\tTime Stamp\tOwner ID\tRecord Data\r\n");
     fe2:	f001 fdbd 	bl	2b60 <ser_out>
		proceed Show_LocalDB_Item;
     fe6:	2015      	movs	r0, #21
     fe8:	f000 ff20 	bl	1e2c <proceed>
	state Show_LocalDB_Item:
		// Prints one single line for each entry	
		if (db_print_index >= max_records) {
     fec:	4c3b      	ldr	r4, [pc, #236]	; (10dc <root+0x33c>)
     fee:	4b25      	ldr	r3, [pc, #148]	; (1084 <root+0x2e4>)
     ff0:	6822      	ldr	r2, [r4, #0]
     ff2:	681b      	ldr	r3, [r3, #0]
     ff4:	429a      	cmp	r2, r3
     ff6:	db06      	blt.n	1006 <root+0x266>
			ser_out(Show_LocalDB_Item, "\r\n");
     ff8:	2015      	movs	r0, #21
     ffa:	493a      	ldr	r1, [pc, #232]	; (10e4 <root+0x344>)
     ffc:	f001 fdb0 	bl	2b60 <ser_out>
			proceed Menu_Print;
    1000:	2001      	movs	r0, #1
    1002:	f000 ff13 	bl	1e2c <proceed>
		}
		if(database[db_print_index].used){
    1006:	231c      	movs	r3, #28
    1008:	6822      	ldr	r2, [r4, #0]
    100a:	4937      	ldr	r1, [pc, #220]	; (10e8 <root+0x348>)
    100c:	4353      	muls	r3, r2
    100e:	5ccd      	ldrb	r5, [r1, r3]
    1010:	18c8      	adds	r0, r1, r3
    1012:	b14d      	cbz	r5, 1028 <root+0x288>
		ser_outf(Show_LocalDB_Item, "%d\t%d\t%d\t%s\r\n", db_print_index, database[db_print_index].timestamp, database[db_print_index].owner_id, database[db_print_index].record);
    1014:	3308      	adds	r3, #8
    1016:	440b      	add	r3, r1
    1018:	9301      	str	r3, [sp, #4]
    101a:	7843      	ldrb	r3, [r0, #1]
    101c:	4933      	ldr	r1, [pc, #204]	; (10ec <root+0x34c>)
    101e:	9300      	str	r3, [sp, #0]
    1020:	6843      	ldr	r3, [r0, #4]
    1022:	2015      	movs	r0, #21
    1024:	f001 fe0e 	bl	2c44 <ser_outf>
		}
		db_print_index++;
    1028:	6823      	ldr	r3, [r4, #0]
		proceed Show_LocalDB_Item;
    102a:	2015      	movs	r0, #21
		db_print_index++;
    102c:	3301      	adds	r3, #1
    102e:	6023      	str	r3, [r4, #0]
		proceed Show_LocalDB_Item;
    1030:	f000 fefc 	bl	1e2c <proceed>
	
	
	state Reset_DB:
		// user chose "E" or "e", delete all the nodes 
		stored_records = 0;
    1034:	2300      	movs	r3, #0
		for (int i = 0; i < 40; i++) {
			database[i].used = 0;
    1036:	4619      	mov	r1, r3
		stored_records = 0;
    1038:	4a10      	ldr	r2, [pc, #64]	; (107c <root+0x2dc>)
    103a:	6013      	str	r3, [r2, #0]
		for (int i = 0; i < 40; i++) {
    103c:	4a2a      	ldr	r2, [pc, #168]	; (10e8 <root+0x348>)
    103e:	3301      	adds	r3, #1
    1040:	2b28      	cmp	r3, #40	; 0x28
			database[i].used = 0;
    1042:	7011      	strb	r1, [r2, #0]
			database[i].owner_id = 0;
    1044:	7051      	strb	r1, [r2, #1]
			database[i].timestamp = 0;
    1046:	6051      	str	r1, [r2, #4]
			database[i].record[0] = '\0';
    1048:	7211      	strb	r1, [r2, #8]
		for (int i = 0; i < 40; i++) {
    104a:	f102 021c 	add.w	r2, r2, #28
    104e:	d1f6      	bne.n	103e <root+0x29e>
		}
		ser_out(Reset_DB, "\r\n");
    1050:	4924      	ldr	r1, [pc, #144]	; (10e4 <root+0x344>)
    1052:	2016      	movs	r0, #22
    1054:	f001 fd84 	bl	2b60 <ser_out>
		proceed Menu_Print;
    1058:	2001      	movs	r0, #1
}
    105a:	b003      	add	sp, #12
    105c:	e8bd 4030 	ldmia.w	sp!, {r4, r5, lr}
		proceed Menu_Print;
    1060:	f000 bee4 	b.w	1e2c <proceed>
}
    1064:	b003      	add	sp, #12
    1066:	e8bd 4030 	ldmia.w	sp!, {r4, r5, lr}
    106a:	f000 be57 	b.w	1d1c <__pi_badstate>
    106e:	bf00      	nop
    1070:	00005de0 	andeq	r5, r0, r0, ror #27
    1074:	20000000 	andcs	r0, r0, r0
    1078:	000050d2 	ldrdeq	r5, [r0], -r2
    107c:	20000630 	andcs	r0, r0, r0, lsr r6
    1080:	00000799 	muleq	r0, r9, r7
    1084:	200005c8 	andcs	r0, r0, r8, asr #11
    1088:	20000110 	andcs	r0, r0, r0, lsl r1
    108c:	20000628 	andcs	r0, r0, r8, lsr #12
    1090:	200005bc 			; <UNDEFINED> instruction: 0x200005bc
    1094:	200005d4 	ldrdcs	r0, [r0], -r4
    1098:	000050ec 	andeq	r5, r0, ip, ror #1
    109c:	00005113 	andeq	r5, r0, r3, lsl r1
    10a0:	2000010d 	andcs	r0, r0, sp, lsl #2
    10a4:	000051db 	ldrdeq	r5, [r0], -fp
    10a8:	000051de 	ldrdeq	r5, [r0], -lr
    10ac:	000000c9 	andeq	r0, r0, r9, asr #1
    10b0:	000002cd 	andeq	r0, r0, sp, asr #5
    10b4:	20000578 	andcs	r0, r0, r8, ror r5
    10b8:	000005bd 			; <UNDEFINED> instruction: 0x000005bd
    10bc:	20000590 	mulcs	r0, r0, r5
    10c0:	00000499 	muleq	r0, r9, r4
    10c4:	000051e3 	andeq	r5, r0, r3, ror #3
    10c8:	00005467 	andeq	r5, r0, r7, ror #8
    10cc:	000051f4 	strdeq	r5, [r0], -r4
    10d0:	000051fb 	strdeq	r5, [r0], -fp
    10d4:	20000634 	andcs	r0, r0, r4, lsr r6
    10d8:	0000520b 	andeq	r5, r0, fp, lsl #4
    10dc:	20000574 	andcs	r0, r0, r4, ror r5
    10e0:	0000521f 	andeq	r5, r0, pc, lsl r2
    10e4:	000051f8 	strdeq	r5, [r0], -r8
    10e8:	20000114 	andcs	r0, r0, r4, lsl r1
    10ec:	00005249 	andeq	r5, r0, r9, asr #4

000010f0 <devinit_uart>:
			/* No return */
			return 0;
	}
}

static void devinit_uart (int devnum) {
    10f0:	4601      	mov	r1, r0

	adddevfunc (ioreq_uart_a, devnum);
    10f2:	4801      	ldr	r0, [pc, #4]	; (10f8 <devinit_uart+0x8>)
    10f4:	f000 bf34 	b.w	1f60 <adddevfunc>
    10f8:	00001485 	andeq	r1, r0, r5, lsl #9

000010fc <udelay>:
void udelay (volatile word n) {
    10fc:	b082      	sub	sp, #8
    10fe:	f8ad 0006 	strh.w	r0, [sp, #6]
	while (n) {
    1102:	f8bd 3006 	ldrh.w	r3, [sp, #6]
    1106:	b29b      	uxth	r3, r3
    1108:	b90b      	cbnz	r3, 110e <udelay+0x12>
}
    110a:	b002      	add	sp, #8
    110c:	4770      	bx	lr
		_gdelay (__USEC_DELAY);
    110e:	2304      	movs	r3, #4
	while (n--);
    1110:	461a      	mov	r2, r3
    1112:	3b01      	subs	r3, #1
    1114:	b29b      	uxth	r3, r3
    1116:	2a00      	cmp	r2, #0
    1118:	d1fa      	bne.n	1110 <udelay+0x14>
		n--;
    111a:	f8bd 3006 	ldrh.w	r3, [sp, #6]
    111e:	3b01      	subs	r3, #1
    1120:	b29b      	uxth	r3, r3
    1122:	f8ad 3006 	strh.w	r3, [sp, #6]
    1126:	e7ec      	b.n	1102 <udelay+0x6>

00001128 <mdelay>:
void mdelay (volatile word n) {
    1128:	b507      	push	{r0, r1, r2, lr}
    112a:	f8ad 0006 	strh.w	r0, [sp, #6]
	while (n) {
    112e:	f8bd 3006 	ldrh.w	r3, [sp, #6]
    1132:	b29b      	uxth	r3, r3
    1134:	b913      	cbnz	r3, 113c <mdelay+0x14>
}
    1136:	b003      	add	sp, #12
    1138:	f85d fb04 	ldr.w	pc, [sp], #4
		udelay (999);
    113c:	f240 30e7 	movw	r0, #999	; 0x3e7
    1140:	f7ff ffdc 	bl	10fc <udelay>
		n--;
    1144:	f8bd 3006 	ldrh.w	r3, [sp, #6]
    1148:	3b01      	subs	r3, #1
    114a:	b29b      	uxth	r3, r3
    114c:	f8ad 3006 	strh.w	r3, [sp, #6]
    1150:	e7ed      	b.n	112e <mdelay+0x6>
	...

00001154 <__pi_ondomain>:
void __pi_ondomain (lword d) {
    1154:	b538      	push	{r3, r4, r5, lr}
	if (d & PRCM_DOMAIN_RFCORE) {
    1156:	07c3      	lsls	r3, r0, #31
void __pi_ondomain (lword d) {
    1158:	4604      	mov	r4, r0
	if (d & PRCM_DOMAIN_RFCORE) {
    115a:	d505      	bpl.n	1168 <__pi_ondomain+0x14>
		if (__pi_systat.effpdm > 1)
    115c:	4b0c      	ldr	r3, [pc, #48]	; (1190 <__pi_ondomain+0x3c>)
    115e:	78da      	ldrb	r2, [r3, #3]
    1160:	2a01      	cmp	r2, #1
			__pi_systat.effpdm = 1;
    1162:	bf84      	itt	hi
    1164:	2201      	movhi	r2, #1
    1166:	70da      	strbhi	r2, [r3, #3]
	PRCMPowerDomainOn (d);
    1168:	f04f 5580 	mov.w	r5, #268435456	; 0x10000000
    116c:	f8d5 31b8 	ldr.w	r3, [r5, #440]	; 0x1b8
    1170:	4620      	mov	r0, r4
    1172:	695b      	ldr	r3, [r3, #20]
    1174:	4798      	blx	r3
	while (PRCMPowerDomainStatus (d) != PRCM_DOMAIN_POWER_ON);
    1176:	f8d5 31b8 	ldr.w	r3, [r5, #440]	; 0x1b8
    117a:	4620      	mov	r0, r4
    117c:	6b5b      	ldr	r3, [r3, #52]	; 0x34
    117e:	4798      	blx	r3
    1180:	2801      	cmp	r0, #1
    1182:	d1f8      	bne.n	1176 <__pi_ondomain+0x22>
	__pi_systat.ondmns |= d;
    1184:	4b02      	ldr	r3, [pc, #8]	; (1190 <__pi_ondomain+0x3c>)
    1186:	6858      	ldr	r0, [r3, #4]
    1188:	4304      	orrs	r4, r0
    118a:	605c      	str	r4, [r3, #4]
}
    118c:	bd38      	pop	{r3, r4, r5, pc}
    118e:	bf00      	nop
    1190:	20000660 	andcs	r0, r0, r0, ror #12

00001194 <__pi_offdomain>:
void __pi_offdomain (lword d) {
    1194:	b538      	push	{r3, r4, r5, lr}
	PRCMPowerDomainOff (d);
    1196:	f04f 5580 	mov.w	r5, #268435456	; 0x10000000
    119a:	f8d5 31b8 	ldr.w	r3, [r5, #440]	; 0x1b8
void __pi_offdomain (lword d) {
    119e:	4604      	mov	r4, r0
	PRCMPowerDomainOff (d);
    11a0:	699b      	ldr	r3, [r3, #24]
    11a2:	4798      	blx	r3
	while (PRCMPowerDomainStatus (d) != PRCM_DOMAIN_POWER_OFF);
    11a4:	f8d5 31b8 	ldr.w	r3, [r5, #440]	; 0x1b8
    11a8:	4620      	mov	r0, r4
    11aa:	6b5b      	ldr	r3, [r3, #52]	; 0x34
    11ac:	4798      	blx	r3
    11ae:	2802      	cmp	r0, #2
    11b0:	d1f8      	bne.n	11a4 <__pi_offdomain+0x10>
	if (d & PRCM_DOMAIN_RFCORE) {
    11b2:	f014 0f01 	tst.w	r4, #1
    11b6:	4b07      	ldr	r3, [pc, #28]	; (11d4 <__pi_offdomain+0x40>)
    11b8:	d006      	beq.n	11c8 <__pi_offdomain+0x34>
		if (__pi_systat.reqpdm > __pi_systat.effpdm)
    11ba:	7899      	ldrb	r1, [r3, #2]
    11bc:	78da      	ldrb	r2, [r3, #3]
    11be:	4291      	cmp	r1, r2
			__pi_systat.effpdm = __pi_systat.reqpdm;
    11c0:	bf82      	ittt	hi
    11c2:	789a      	ldrbhi	r2, [r3, #2]
    11c4:	b2d2      	uxtbhi	r2, r2
    11c6:	70da      	strbhi	r2, [r3, #3]
	__pi_systat.ondmns &= ~d;
    11c8:	6858      	ldr	r0, [r3, #4]
    11ca:	ea20 0404 	bic.w	r4, r0, r4
    11ce:	605c      	str	r4, [r3, #4]
}
    11d0:	bd38      	pop	{r3, r4, r5, pc}
    11d2:	bf00      	nop
    11d4:	20000660 	andcs	r0, r0, r0, ror #12

000011d8 <__pi_syserror>:
void __pi_syserror (word ec, const char *m) {
    11d8:	460a      	mov	r2, r1
    11da:	b508      	push	{r3, lr}
	diag ("SYSERR: %x, %s", ec, m);
    11dc:	4601      	mov	r1, r0
    11de:	4810      	ldr	r0, [pc, #64]	; (1220 <__pi_syserror+0x48>)
    11e0:	f001 f80c 	bl	21fc <diag>
  \details Disables IRQ interrupts by setting the I-bit in the CPSR.
           Can only be executed in Privileged modes.
 */
__attribute__((always_inline)) __STATIC_INLINE void __disable_irq(void)
{
  __ASM volatile ("cpsid i" : : : "memory");
    11e4:	b672      	cpsid	i
    ASSERT( dioNumberLegal( dioNumber ));

    //
    // Set the specified DIO.
    //
    HWREG( GPIO_BASE + GPIO_O_DOUTSET31_0 ) = ( 1 << dioNumber );
    11e6:	2640      	movs	r6, #64	; 0x40
    11e8:	4c0e      	ldr	r4, [pc, #56]	; (1224 <__pi_syserror+0x4c>)
    11ea:	2580      	movs	r5, #128	; 0x80
		all_leds_blink;
    11ec:	490e      	ldr	r1, [pc, #56]	; (1228 <__pi_syserror+0x50>)
    11ee:	f8c4 6090 	str.w	r6, [r4, #144]	; 0x90
    11f2:	f8c4 5090 	str.w	r5, [r4, #144]	; 0x90
    11f6:	780b      	ldrb	r3, [r1, #0]
    11f8:	780b      	ldrb	r3, [r1, #0]
    11fa:	20c8      	movs	r0, #200	; 0xc8
    11fc:	f36f 1307 	bfc	r3, #4, #4
    1200:	700b      	strb	r3, [r1, #0]
    1202:	f7ff ff91 	bl	1128 <mdelay>
    ASSERT( dioNumberLegal( dioNumber ));

    //
    // Clear the specified DIO.
    //
    HWREG( GPIO_BASE + GPIO_O_DOUTCLR31_0 ) = ( 1 << dioNumber );
    1206:	f8c4 60a0 	str.w	r6, [r4, #160]	; 0xa0
    120a:	f8c4 50a0 	str.w	r5, [r4, #160]	; 0xa0
    120e:	780b      	ldrb	r3, [r1, #0]
    1210:	780b      	ldrb	r3, [r1, #0]
    1212:	20c8      	movs	r0, #200	; 0xc8
    1214:	f36f 1307 	bfc	r3, #4, #4
    1218:	700b      	strb	r3, [r1, #0]
    121a:	f7ff ff85 	bl	1128 <mdelay>
	while (1) {
    121e:	e7e4      	b.n	11ea <__pi_syserror+0x12>
    1220:	00005257 	andeq	r5, r0, r7, asr r2
    1224:	40022000 	andmi	r2, r2, r0
    1228:	20000660 	andcs	r0, r0, r0, ror #12

0000122c <tci_run_delay_timer>:
void tci_run_delay_timer () {
    122c:	b510      	push	{r4, lr}
	setdel = __pi_mintk - __pi_old;
    122e:	4b0b      	ldr	r3, [pc, #44]	; (125c <tci_run_delay_timer+0x30>)
    1230:	881c      	ldrh	r4, [r3, #0]
    1232:	4b0b      	ldr	r3, [pc, #44]	; (1260 <tci_run_delay_timer+0x34>)
    1234:	8818      	ldrh	r0, [r3, #0]
    1236:	4b0b      	ldr	r3, [pc, #44]	; (1264 <tci_run_delay_timer+0x38>)
    1238:	1b00      	subs	r0, r0, r4
    123a:	b284      	uxth	r4, r0
    123c:	801c      	strh	r4, [r3, #0]
	return (lword)(AONRTCCurrent64BitValueGet () >> 16) + TCI_TINCR (del);
    123e:	f002 fe31 	bl	3ea4 <NOROM_AONRTCCurrent64BitValueGet>
	sti_tim;
    1242:	2201      	movs	r2, #1
	return (lword)(AONRTCCurrent64BitValueGet () >> 16) + TCI_TINCR (del);
    1244:	0c00      	lsrs	r0, r0, #16
	HWREG (AON_RTC_BASE + AON_RTC_O_CH0CMP) = settav (setdel);
    1246:	4b08      	ldr	r3, [pc, #32]	; (1268 <tci_run_delay_timer+0x3c>)
	return (lword)(AONRTCCurrent64BitValueGet () >> 16) + TCI_TINCR (del);
    1248:	ea40 4001 	orr.w	r0, r0, r1, lsl #16
    124c:	eb00 1084 	add.w	r0, r0, r4, lsl #6
	HWREG (AON_RTC_BASE + AON_RTC_O_CH0CMP) = settav (setdel);
    1250:	6198      	str	r0, [r3, #24]
	sti_tim;
    1252:	4b06      	ldr	r3, [pc, #24]	; (126c <tci_run_delay_timer+0x40>)
    1254:	f8c3 2280 	str.w	r2, [r3, #640]	; 0x280
}
    1258:	bd10      	pop	{r4, pc}
    125a:	bf00      	nop
    125c:	2000065c 	andcs	r0, r0, ip, asr r6
    1260:	20000658 	andcs	r0, r0, r8, asr r6
    1264:	20000644 	andcs	r0, r0, r4, asr #12
    1268:	40092000 	andmi	r2, r9, r0
    126c:	43240000 			; <UNDEFINED> instruction: 0x43240000

00001270 <tci_run_auxiliary_timer>:
	cli_aux;
    1270:	2300      	movs	r3, #0
void tci_run_auxiliary_timer () {
    1272:	b510      	push	{r4, lr}
	cli_aux;
    1274:	4c07      	ldr	r4, [pc, #28]	; (1294 <tci_run_auxiliary_timer+0x24>)
    1276:	f8c4 32c0 	str.w	r3, [r4, #704]	; 0x2c0
	return (lword)(AONRTCCurrent64BitValueGet () >> 16) + TCI_TINCR (del);
    127a:	f002 fe13 	bl	3ea4 <NOROM_AONRTCCurrent64BitValueGet>
    127e:	0c00      	lsrs	r0, r0, #16
	HWREG (AON_RTC_BASE + AON_RTC_O_CH2CMP) = settav (1);
    1280:	4b05      	ldr	r3, [pc, #20]	; (1298 <tci_run_auxiliary_timer+0x28>)
	return (lword)(AONRTCCurrent64BitValueGet () >> 16) + TCI_TINCR (del);
    1282:	ea40 4001 	orr.w	r0, r0, r1, lsl #16
    1286:	3040      	adds	r0, #64	; 0x40
	HWREG (AON_RTC_BASE + AON_RTC_O_CH2CMP) = settav (1);
    1288:	6218      	str	r0, [r3, #32]
	sti_aux;
    128a:	2301      	movs	r3, #1
    128c:	f8c4 32c0 	str.w	r3, [r4, #704]	; 0x2c0
}
    1290:	bd10      	pop	{r4, pc}
    1292:	bf00      	nop
    1294:	43240000 			; <UNDEFINED> instruction: 0x43240000
    1298:	40092000 	andmi	r2, r9, r0

0000129c <AONRTCIntHandler>:
void AONRTCIntHandler () {
    129c:	b510      	push	{r4, lr}
	events = HWREG (AON_RTC_BASE + AON_RTC_O_EVFLAGS) & 
    129e:	4b3e      	ldr	r3, [pc, #248]	; (1398 <AONRTCIntHandler+0xfc>)
    12a0:	6858      	ldr	r0, [r3, #4]
    12a2:	f000 1201 	and.w	r2, r0, #65537	; 0x10001
	if (events & AON_RTC_EVFLAGS_CH2) {
    12a6:	03c4      	lsls	r4, r0, #15
	HWREG (AON_RTC_BASE + AON_RTC_O_EVFLAGS) = events;
    12a8:	605a      	str	r2, [r3, #4]
	if (events & AON_RTC_EVFLAGS_CH2) {
    12aa:	d544      	bpl.n	1336 <AONRTCIntHandler+0x9a>
		if (__pi_utims [0] == 0)
    12ac:	4b3b      	ldr	r3, [pc, #236]	; (139c <AONRTCIntHandler+0x100>)
    12ae:	6819      	ldr	r1, [r3, #0]
    12b0:	2900      	cmp	r1, #0
    12b2:	d056      	beq.n	1362 <AONRTCIntHandler+0xc6>
		if (*(__pi_utims [0])) {
    12b4:	880a      	ldrh	r2, [r1, #0]
    12b6:	2a00      	cmp	r2, #0
    12b8:	d051      	beq.n	135e <AONRTCIntHandler+0xc2>
			(*(__pi_utims [0]))--;
    12ba:	3a01      	subs	r2, #1
    12bc:	800a      	strh	r2, [r1, #0]
			aux_timer_inactive = 0;
    12be:	2200      	movs	r2, #0
		if (__pi_utims [1] == 0)
    12c0:	685c      	ldr	r4, [r3, #4]
    12c2:	b194      	cbz	r4, 12ea <AONRTCIntHandler+0x4e>
		if (*(__pi_utims [1])) {
    12c4:	8821      	ldrh	r1, [r4, #0]
    12c6:	b111      	cbz	r1, 12ce <AONRTCIntHandler+0x32>
			aux_timer_inactive = 0;
    12c8:	2200      	movs	r2, #0
			(*(__pi_utims [1]))--;
    12ca:	3901      	subs	r1, #1
    12cc:	8021      	strh	r1, [r4, #0]
		if (__pi_utims [2] == 0)
    12ce:	689c      	ldr	r4, [r3, #8]
    12d0:	b15c      	cbz	r4, 12ea <AONRTCIntHandler+0x4e>
		if (*(__pi_utims [2])) {
    12d2:	8821      	ldrh	r1, [r4, #0]
    12d4:	b111      	cbz	r1, 12dc <AONRTCIntHandler+0x40>
			aux_timer_inactive = 0;
    12d6:	2200      	movs	r2, #0
			(*(__pi_utims [2]))--;
    12d8:	3901      	subs	r1, #1
    12da:	8021      	strh	r1, [r4, #0]
		if (__pi_utims [3] != 0) {
    12dc:	68d9      	ldr	r1, [r3, #12]
    12de:	b121      	cbz	r1, 12ea <AONRTCIntHandler+0x4e>
			if (*(__pi_utims [3])) {
    12e0:	880b      	ldrh	r3, [r1, #0]
    12e2:	b113      	cbz	r3, 12ea <AONRTCIntHandler+0x4e>
				aux_timer_inactive = 0;
    12e4:	2200      	movs	r2, #0
				(*(__pi_utims [3]))--;
    12e6:	3b01      	subs	r3, #1
    12e8:	800b      	strh	r3, [r1, #0]
/* ==================================================================== */
/* Copyright (C) Olsonet Communications, 2002 - 2006                    */
/* All rights reserved.                                                 */
/* ==================================================================== */

	if (__pi_systat.ledsts) {
    12ea:	4b2d      	ldr	r3, [pc, #180]	; (13a0 <AONRTCIntHandler+0x104>)
    12ec:	7819      	ldrb	r1, [r3, #0]
    12ee:	0909      	lsrs	r1, r1, #4
    12f0:	d04c      	beq.n	138c <AONRTCIntHandler+0xf0>
		// Some leds are supposed to blink
		if (__pi_systat.ledblc++ == 0) {
    12f2:	7859      	ldrb	r1, [r3, #1]
    12f4:	1c4a      	adds	r2, r1, #1
    12f6:	b2d2      	uxtb	r2, r2
    12f8:	705a      	strb	r2, [r3, #1]
    12fa:	b9e1      	cbnz	r1, 1336 <AONRTCIntHandler+0x9a>
			if (__pi_systat.ledblk) {
    12fc:	781a      	ldrb	r2, [r3, #0]
    12fe:	f012 0f08 	tst.w	r2, #8
				if (__pi_systat.ledsts & 0x1)
    1302:	781a      	ldrb	r2, [r3, #0]
			if (__pi_systat.ledblk) {
    1304:	d02f      	beq.n	1366 <AONRTCIntHandler+0xca>
				if (__pi_systat.ledsts & 0x1)
    1306:	06d1      	lsls	r1, r2, #27
    HWREG( GPIO_BASE + GPIO_O_DOUTSET31_0 ) = ( 1 << dioNumber );
    1308:	bf42      	ittt	mi
    130a:	2140      	movmi	r1, #64	; 0x40
    130c:	4a25      	ldrmi	r2, [pc, #148]	; (13a4 <AONRTCIntHandler+0x108>)
    130e:	f8c2 1090 	strmi.w	r1, [r2, #144]	; 0x90
					LED0_ON;
				if (__pi_systat.ledsts & 0x2)
    1312:	781a      	ldrb	r2, [r3, #0]
    1314:	0692      	lsls	r2, r2, #26
    1316:	bf42      	ittt	mi
    1318:	2180      	movmi	r1, #128	; 0x80
    131a:	4a22      	ldrmi	r2, [pc, #136]	; (13a4 <AONRTCIntHandler+0x108>)
    131c:	f8c2 1090 	strmi.w	r1, [r2, #144]	; 0x90
					LED1_ON;
				if (__pi_systat.ledsts & 0x4)
    1320:	781a      	ldrb	r2, [r3, #0]
					LED2_ON;
				if (__pi_systat.ledsts & 0x8)
    1322:	781a      	ldrb	r2, [r3, #0]
					LED3_ON;
				__pi_systat.ledblk = 0;
    1324:	781a      	ldrb	r2, [r3, #0]
    1326:	f36f 02c3 	bfc	r2, #3, #1
					LED1_OFF;
				if (__pi_systat.ledsts & 0x4)
					LED2_OFF;
				if (__pi_systat.ledsts & 0x8)
					LED3_OFF;
				__pi_systat.ledblk = 1;
    132a:	701a      	strb	r2, [r3, #0]
			}
			if (__pi_systat.fstblk)
    132c:	781a      	ldrb	r2, [r3, #0]
    132e:	0752      	lsls	r2, r2, #29
    1330:	d501      	bpl.n	1336 <AONRTCIntHandler+0x9a>
				__pi_systat.ledblc = 200;
    1332:	22c8      	movs	r2, #200	; 0xc8
    1334:	705a      	strb	r2, [r3, #1]
	if (events & AON_RTC_EVFLAGS_CH0) {
    1336:	07c3      	lsls	r3, r0, #31
    1338:	d510      	bpl.n	135c <AONRTCIntHandler+0xc0>
		cli_tim;
    133a:	2100      	movs	r1, #0
    133c:	4b1a      	ldr	r3, [pc, #104]	; (13a8 <AONRTCIntHandler+0x10c>)
		__pi_new += setdel;
    133e:	4a1b      	ldr	r2, [pc, #108]	; (13ac <AONRTCIntHandler+0x110>)
    1340:	481b      	ldr	r0, [pc, #108]	; (13b0 <AONRTCIntHandler+0x114>)
		cli_tim;
    1342:	f8c3 1280 	str.w	r1, [r3, #640]	; 0x280
		__pi_new += setdel;
    1346:	8803      	ldrh	r3, [r0, #0]
    1348:	8814      	ldrh	r4, [r2, #0]
		setdel = 0;
    134a:	8011      	strh	r1, [r2, #0]
		__pi_new += setdel;
    134c:	4423      	add	r3, r4
		RISE_N_SHINE;
    134e:	4a14      	ldr	r2, [pc, #80]	; (13a0 <AONRTCIntHandler+0x104>)
		__pi_new += setdel;
    1350:	b29b      	uxth	r3, r3
    1352:	8003      	strh	r3, [r0, #0]
		RISE_N_SHINE;
    1354:	7813      	ldrb	r3, [r2, #0]
    1356:	f043 0302 	orr.w	r3, r3, #2
    135a:	7013      	strb	r3, [r2, #0]
}
    135c:	bd10      	pop	{r4, pc}
		aux_timer_inactive = 1;
    135e:	2201      	movs	r2, #1
    1360:	e7ae      	b.n	12c0 <AONRTCIntHandler+0x24>
    1362:	2201      	movs	r2, #1
    1364:	e7c1      	b.n	12ea <AONRTCIntHandler+0x4e>
				if (__pi_systat.ledsts & 0x1)
    1366:	06d4      	lsls	r4, r2, #27
    HWREG( GPIO_BASE + GPIO_O_DOUTCLR31_0 ) = ( 1 << dioNumber );
    1368:	bf42      	ittt	mi
    136a:	2140      	movmi	r1, #64	; 0x40
    136c:	4a0d      	ldrmi	r2, [pc, #52]	; (13a4 <AONRTCIntHandler+0x108>)
    136e:	f8c2 10a0 	strmi.w	r1, [r2, #160]	; 0xa0
				if (__pi_systat.ledsts & 0x2)
    1372:	781a      	ldrb	r2, [r3, #0]
    1374:	0691      	lsls	r1, r2, #26
    1376:	bf42      	ittt	mi
    1378:	2180      	movmi	r1, #128	; 0x80
    137a:	4a0a      	ldrmi	r2, [pc, #40]	; (13a4 <AONRTCIntHandler+0x108>)
    137c:	f8c2 10a0 	strmi.w	r1, [r2, #160]	; 0xa0
				if (__pi_systat.ledsts & 0x4)
    1380:	781a      	ldrb	r2, [r3, #0]
				if (__pi_systat.ledsts & 0x8)
    1382:	781a      	ldrb	r2, [r3, #0]
				__pi_systat.ledblk = 1;
    1384:	781a      	ldrb	r2, [r3, #0]
    1386:	f042 0208 	orr.w	r2, r2, #8
    138a:	e7ce      	b.n	132a <AONRTCIntHandler+0x8e>
		if (aux_timer_inactive) {
    138c:	2a00      	cmp	r2, #0
    138e:	d0d2      	beq.n	1336 <AONRTCIntHandler+0x9a>
			cli_aux;
    1390:	4b05      	ldr	r3, [pc, #20]	; (13a8 <AONRTCIntHandler+0x10c>)
    1392:	f8c3 12c0 	str.w	r1, [r3, #704]	; 0x2c0
    1396:	e7ce      	b.n	1336 <AONRTCIntHandler+0x9a>
    1398:	40092000 	andmi	r2, r9, r0
    139c:	20000668 	andcs	r0, r0, r8, ror #12
    13a0:	20000660 	andcs	r0, r0, r0, ror #12
    13a4:	40022000 	andmi	r2, r2, r0
    13a8:	43240000 			; <UNDEFINED> instruction: 0x43240000
    13ac:	20000644 	andcs	r0, r0, r4, asr #12
    13b0:	2000065a 	andcs	r0, r0, sl, asr r6

000013b4 <tci_update_delay_ticks>:
word tci_update_delay_ticks (Boolean force) {
    13b4:	b5f8      	push	{r3, r4, r5, r6, r7, lr}
	cli_tim;
    13b6:	2600      	movs	r6, #0
    13b8:	4b0f      	ldr	r3, [pc, #60]	; (13f8 <tci_update_delay_ticks+0x44>)
	if (setdel) {
    13ba:	4f10      	ldr	r7, [pc, #64]	; (13fc <tci_update_delay_ticks+0x48>)
	cli_tim;
    13bc:	f8c3 6280 	str.w	r6, [r3, #640]	; 0x280
	if (setdel) {
    13c0:	883d      	ldrh	r5, [r7, #0]
    13c2:	b19d      	cbz	r5, 13ec <tci_update_delay_ticks+0x38>
		if (force) {
    13c4:	b1a0      	cbz	r0, 13f0 <tci_update_delay_ticks+0x3c>
			__pi_new += setdel - (TCI_INCRT (HWREG (AON_RTC_BASE +
    13c6:	4b0e      	ldr	r3, [pc, #56]	; (1400 <tci_update_delay_ticks+0x4c>)
    13c8:	699c      	ldr	r4, [r3, #24]
	return (word)(AONRTCCurrent64BitValueGet () >> (32 - 10));
    13ca:	f002 fd6b 	bl	3ea4 <NOROM_AONRTCCurrent64BitValueGet>
    13ce:	0d80      	lsrs	r0, r0, #22
    13d0:	ea40 2081 	orr.w	r0, r0, r1, lsl #10
			__pi_new += setdel - (TCI_INCRT (HWREG (AON_RTC_BASE +
    13d4:	f3c4 148f 	ubfx	r4, r4, #6, #16
				AON_RTC_O_CH0CMP)) - gettav ());
    13d8:	b280      	uxth	r0, r0
    13da:	1a24      	subs	r4, r4, r0
			__pi_new += setdel - (TCI_INCRT (HWREG (AON_RTC_BASE +
    13dc:	1b2c      	subs	r4, r5, r4
	return NO;
    13de:	4635      	mov	r5, r6
			__pi_new += setdel - (TCI_INCRT (HWREG (AON_RTC_BASE +
    13e0:	4b08      	ldr	r3, [pc, #32]	; (1404 <tci_update_delay_ticks+0x50>)
			setdel = 0;
    13e2:	803e      	strh	r6, [r7, #0]
			__pi_new += setdel - (TCI_INCRT (HWREG (AON_RTC_BASE +
    13e4:	881a      	ldrh	r2, [r3, #0]
    13e6:	4414      	add	r4, r2
    13e8:	b2a4      	uxth	r4, r4
    13ea:	801c      	strh	r4, [r3, #0]
}
    13ec:	4628      	mov	r0, r5
    13ee:	bdf8      	pop	{r3, r4, r5, r6, r7, pc}
		sti_tim;
    13f0:	2501      	movs	r5, #1
    13f2:	f8c3 5280 	str.w	r5, [r3, #640]	; 0x280
		return YES;
    13f6:	e7f9      	b.n	13ec <tci_update_delay_ticks+0x38>
    13f8:	43240000 			; <UNDEFINED> instruction: 0x43240000
    13fc:	20000644 	andcs	r0, r0, r4, asr #12
    1400:	40092000 	andmi	r2, r9, r0
    1404:	2000065a 	andcs	r0, r0, sl, asr r6

00001408 <__pi_uart_setrate>:
Boolean __pi_uart_setrate (word rate, uart_t *ua) {
    1408:	b570      	push	{r4, r5, r6, lr}
	UARTDisable (UART0_BASE);
    140a:	f04f 5680 	mov.w	r6, #268435456	; 0x10000000
    140e:	4c0f      	ldr	r4, [pc, #60]	; (144c <__pi_uart_setrate+0x44>)
    1410:	f8d6 31d0 	ldr.w	r3, [r6, #464]	; 0x1d0
Boolean __pi_uart_setrate (word rate, uart_t *ua) {
    1414:	4605      	mov	r5, r0
	UARTDisable (UART0_BASE);
    1416:	68db      	ldr	r3, [r3, #12]
    1418:	4620      	mov	r0, r4
    141a:	4798      	blx	r3
	UARTConfigSetExpClk (UART0_BASE,
    141c:	2264      	movs	r2, #100	; 0x64
    141e:	f8d6 31d0 	ldr.w	r3, [r6, #464]	; 0x1d0
    1422:	4620      	mov	r0, r4
    1424:	685e      	ldr	r6, [r3, #4]
    1426:	436a      	muls	r2, r5
    1428:	2360      	movs	r3, #96	; 0x60
    142a:	4909      	ldr	r1, [pc, #36]	; (1450 <__pi_uart_setrate+0x48>)
    142c:	47b0      	blx	r6
    ASSERT(UARTBaseValid(ui32Base));

    //
    // Enable the FIFO.
    //
    HWREG(ui32Base + UART_O_LCRH) |= UART_LCRH_FEN;
    142e:	6ae3      	ldr	r3, [r4, #44]	; 0x2c
}
    1430:	2001      	movs	r0, #1
    1432:	f043 0310 	orr.w	r3, r3, #16
    1436:	62e3      	str	r3, [r4, #44]	; 0x2c

    //
    // Enable RX, TX, and the UART.
    //
    HWREG(ui32Base + UART_O_CTL) |= (UART_CTL_UARTEN | UART_CTL_TXE |
    1438:	6b23      	ldr	r3, [r4, #48]	; 0x30
    143a:	f443 7340 	orr.w	r3, r3, #768	; 0x300
    143e:	f043 0301 	orr.w	r3, r3, #1
    1442:	6323      	str	r3, [r4, #48]	; 0x30
	urates [0] = rate;
    1444:	4b03      	ldr	r3, [pc, #12]	; (1454 <__pi_uart_setrate+0x4c>)
    1446:	801d      	strh	r5, [r3, #0]
}
    1448:	bd70      	pop	{r4, r5, r6, pc}
    144a:	bf00      	nop
    144c:	40001000 	andmi	r1, r0, r0
    1450:	02dc6c00 	sbcseq	r6, ip, #0, 24
    1454:	2000064c 	andcs	r0, r0, ip, asr #12

00001458 <reinit_uart>:
    ASSERT(UARTBaseValid(ui32Base));

    //
    // Enable the FIFO.
    //
    HWREG(ui32Base + UART_O_LCRH) |= UART_LCRH_FEN;
    1458:	4b07      	ldr	r3, [pc, #28]	; (1478 <reinit_uart+0x20>)
	__pi_uart_setrate (urates [0], __pi_uart);
    145a:	4908      	ldr	r1, [pc, #32]	; (147c <reinit_uart+0x24>)
    145c:	6ada      	ldr	r2, [r3, #44]	; 0x2c
    145e:	f042 0210 	orr.w	r2, r2, #16
    1462:	62da      	str	r2, [r3, #44]	; 0x2c
    HWREG(ui32Base + UART_O_IFLS) = ui32TxLevel | ui32RxLevel;
    1464:	2212      	movs	r2, #18
    1466:	635a      	str	r2, [r3, #52]	; 0x34
    //
    // Check the arguments.
    //
    ASSERT( UARTBaseValid( ui32Base ));

    HWREG( ui32Base + UART_O_CTL ) &= ~( UART_CTL_CTSEN | UART_CTL_RTSEN );
    1468:	6b1a      	ldr	r2, [r3, #48]	; 0x30
    146a:	f422 4240 	bic.w	r2, r2, #49152	; 0xc000
    146e:	631a      	str	r2, [r3, #48]	; 0x30
    1470:	4b03      	ldr	r3, [pc, #12]	; (1480 <reinit_uart+0x28>)
    1472:	8818      	ldrh	r0, [r3, #0]
    1474:	f7ff bfc8 	b.w	1408 <__pi_uart_setrate>
    1478:	40001000 	andmi	r1, r0, r0
    147c:	2000063c 	andcs	r0, r0, ip, lsr r6
    1480:	2000064c 	andcs	r0, r0, ip, asr #12

00001484 <ioreq_uart_a>:
	switch (operation) {
    1484:	3001      	adds	r0, #1
static int ioreq_uart_a (int operation, char *buf, int len) {
    1486:	e92d 41f0 	stmdb	sp!, {r4, r5, r6, r7, r8, lr}
    148a:	460d      	mov	r5, r1
    148c:	4614      	mov	r4, r2
	switch (operation) {
    148e:	2803      	cmp	r0, #3
    1490:	d86a      	bhi.n	1568 <ioreq_uart_a+0xe4>
    1492:	e8df f000 	tbb	[pc, r0]
    1496:	5643104d 	strbpl	r1, [r3], -sp, asr #32
				*buf++ = uart_a_read;
    149a:	683b      	ldr	r3, [r7, #0]
				len--;
    149c:	3e01      	subs	r6, #1
				*buf++ = uart_a_read;
    149e:	f805 3b01 	strb.w	r3, [r5], #1
			while (len && uart_a_char_available) {
    14a2:	b116      	cbz	r6, 14aa <ioreq_uart_a+0x26>
    14a4:	69bb      	ldr	r3, [r7, #24]
    14a6:	06d8      	lsls	r0, r3, #27
    14a8:	d5f7      	bpl.n	149a <ioreq_uart_a+0x16>
			if (len != operation) {
    14aa:	42a6      	cmp	r6, r4
    14ac:	d008      	beq.n	14c0 <ioreq_uart_a+0x3c>
				return operation - len;
    14ae:	1ba4      	subs	r4, r4, r6
}
    14b0:	4620      	mov	r0, r4
    14b2:	e8bd 81f0 	ldmia.w	sp!, {r4, r5, r6, r7, r8, pc}
	switch (operation) {
    14b6:	4616      	mov	r6, r2
			uart_a_disable_int;
    14b8:	f04f 5880 	mov.w	r8, #268435456	; 0x10000000
			if (uart_a_char_available) {
    14bc:	4f2c      	ldr	r7, [pc, #176]	; (1570 <ioreq_uart_a+0xec>)
    14be:	e7f0      	b.n	14a2 <ioreq_uart_a+0x1e>
			uart_a_disable_int;
    14c0:	f8d8 31b0 	ldr.w	r3, [r8, #432]	; 0x1b0
    14c4:	2015      	movs	r0, #21
    14c6:	695b      	ldr	r3, [r3, #20]
    14c8:	4798      	blx	r3
			if (uart_a_char_available) {
    14ca:	69bb      	ldr	r3, [r7, #24]
    14cc:	06d9      	lsls	r1, r3, #27
    14ce:	d405      	bmi.n	14dc <ioreq_uart_a+0x58>
				uart_a_enable_int;
    14d0:	f8d8 31b0 	ldr.w	r3, [r8, #432]	; 0x1b0
    14d4:	2015      	movs	r0, #21
    14d6:	691b      	ldr	r3, [r3, #16]
    14d8:	4798      	blx	r3
				goto Redo_rx;
    14da:	e7e2      	b.n	14a2 <ioreq_uart_a+0x1e>
			_BIS (__pi_uart->flags, UART_FLAGS_IN);
    14dc:	4a25      	ldr	r2, [pc, #148]	; (1574 <ioreq_uart_a+0xf0>)
    14de:	7993      	ldrb	r3, [r2, #6]
    14e0:	f043 0380 	orr.w	r3, r3, #128	; 0x80
			return -2;
    14e4:	f06f 0401 	mvn.w	r4, #1
			_BIS (__pi_uart->flags, UART_FLAGS_OUT);
    14e8:	7193      	strb	r3, [r2, #6]
			return -2;
    14ea:	e7e1      	b.n	14b0 <ioreq_uart_a+0x2c>
				uart_a_write (*buf);
    14ec:	f815 3b01 	ldrb.w	r3, [r5], #1
				len--;
    14f0:	3e01      	subs	r6, #1
				uart_a_write (*buf);
    14f2:	603b      	str	r3, [r7, #0]
			while (len && uart_a_room_in_tx) {
    14f4:	b116      	cbz	r6, 14fc <ioreq_uart_a+0x78>
    14f6:	69bb      	ldr	r3, [r7, #24]
    14f8:	069a      	lsls	r2, r3, #26
    14fa:	d5f7      	bpl.n	14ec <ioreq_uart_a+0x68>
			if (len != operation) {
    14fc:	42a6      	cmp	r6, r4
    14fe:	d1d6      	bne.n	14ae <ioreq_uart_a+0x2a>
			uart_a_disable_int;
    1500:	f8d8 31b0 	ldr.w	r3, [r8, #432]	; 0x1b0
    1504:	2015      	movs	r0, #21
    1506:	695b      	ldr	r3, [r3, #20]
    1508:	4798      	blx	r3
			if (uart_a_room_in_tx) {
    150a:	69bb      	ldr	r3, [r7, #24]
    150c:	069b      	lsls	r3, r3, #26
    150e:	d40a      	bmi.n	1526 <ioreq_uart_a+0xa2>
				uart_a_enable_int;
    1510:	f8d8 31b0 	ldr.w	r3, [r8, #432]	; 0x1b0
    1514:	2015      	movs	r0, #21
    1516:	691b      	ldr	r3, [r3, #16]
    1518:	4798      	blx	r3
				goto Redo_tx;
    151a:	e7eb      	b.n	14f4 <ioreq_uart_a+0x70>
	switch (operation) {
    151c:	4616      	mov	r6, r2
			uart_a_disable_int;
    151e:	f04f 5880 	mov.w	r8, #268435456	; 0x10000000
			if (uart_a_room_in_tx) {
    1522:	4f13      	ldr	r7, [pc, #76]	; (1570 <ioreq_uart_a+0xec>)
    1524:	e7e6      	b.n	14f4 <ioreq_uart_a+0x70>
			_BIS (__pi_uart->flags, UART_FLAGS_OUT);
    1526:	4a13      	ldr	r2, [pc, #76]	; (1574 <ioreq_uart_a+0xf0>)
    1528:	7993      	ldrb	r3, [r2, #6]
    152a:	f043 0340 	orr.w	r3, r3, #64	; 0x40
    152e:	e7d9      	b.n	14e4 <ioreq_uart_a+0x60>
			uart_a_enable_int;
    1530:	f04f 5380 	mov.w	r3, #268435456	; 0x10000000
    1534:	f8d3 31b0 	ldr.w	r3, [r3, #432]	; 0x1b0
    1538:	2015      	movs	r0, #21
    153a:	691b      	ldr	r3, [r3, #16]
    153c:	4798      	blx	r3
			return 0;
    153e:	2400      	movs	r4, #0
    1540:	e7b6      	b.n	14b0 <ioreq_uart_a+0x2c>
			if (len == UART_CNTRL_SETRATE) {
    1542:	2a01      	cmp	r2, #1
    1544:	d109      	bne.n	155a <ioreq_uart_a+0xd6>
				if (__pi_uart_setrate (*((word*)buf),
    1546:	490b      	ldr	r1, [pc, #44]	; (1574 <ioreq_uart_a+0xf0>)
    1548:	8828      	ldrh	r0, [r5, #0]
    154a:	f7ff ff5d 	bl	1408 <__pi_uart_setrate>
    154e:	2800      	cmp	r0, #0
    1550:	d1ae      	bne.n	14b0 <ioreq_uart_a+0x2c>
				syserror (EREQPAR, "uar");
    1552:	2003      	movs	r0, #3
    1554:	4908      	ldr	r1, [pc, #32]	; (1578 <ioreq_uart_a+0xf4>)
			syserror (ENOOPER, "uai");
    1556:	f7ff fe3f 	bl	11d8 <__pi_syserror>
			if (len == UART_CNTRL_GETRATE) {
    155a:	2a02      	cmp	r2, #2
    155c:	d104      	bne.n	1568 <ioreq_uart_a+0xe4>
	return urates [0];
    155e:	4b07      	ldr	r3, [pc, #28]	; (157c <ioreq_uart_a+0xf8>)
				return 1;
    1560:	2401      	movs	r4, #1
				*((word*)buf) = __pi_uart_getrate (__pi_uart);
    1562:	881b      	ldrh	r3, [r3, #0]
    1564:	800b      	strh	r3, [r1, #0]
				return 1;
    1566:	e7a3      	b.n	14b0 <ioreq_uart_a+0x2c>
			syserror (ENOOPER, "uai");
    1568:	2002      	movs	r0, #2
    156a:	4905      	ldr	r1, [pc, #20]	; (1580 <ioreq_uart_a+0xfc>)
    156c:	e7f3      	b.n	1556 <ioreq_uart_a+0xd2>
    156e:	bf00      	nop
    1570:	40001000 	andmi	r1, r0, r0
    1574:	2000063c 	andcs	r0, r0, ip, lsr r6
    1578:	00005266 	andeq	r5, r0, r6, ror #4
    157c:	2000064c 	andcs	r0, r0, ip, asr #12
    1580:	0000526a 	andeq	r5, r0, sl, ror #4

00001584 <UART0IntHandler>:
    HWREG(ui32Base + UART_O_ICR) = ui32IntFlags;
    1584:	f240 72f2 	movw	r2, #2034	; 0x7f2
}

void UART0IntHandler () {
    1588:	b530      	push	{r4, r5, lr}
    158a:	4b29      	ldr	r3, [pc, #164]	; (1630 <UART0IntHandler+0xac>)
    158c:	645a      	str	r2, [r3, #68]	; 0x44

	uart_a_clear_interrupts;

	if (uart_a_char_available && (__pi_uart->flags & UART_FLAGS_IN)) {
    158e:	699b      	ldr	r3, [r3, #24]
    1590:	06dc      	lsls	r4, r3, #27
    1592:	d423      	bmi.n	15dc <UART0IntHandler+0x58>
    1594:	4b27      	ldr	r3, [pc, #156]	; (1634 <UART0IntHandler+0xb0>)
    1596:	799a      	ldrb	r2, [r3, #6]
    1598:	0610      	lsls	r0, r2, #24
    159a:	d51f      	bpl.n	15dc <UART0IntHandler+0x58>
		_BIC (__pi_uart->flags, UART_FLAGS_IN);
    159c:	799a      	ldrb	r2, [r3, #6]
    159e:	f002 027f 	and.w	r2, r2, #127	; 0x7f
    15a2:	719a      	strb	r2, [r3, #6]
		RISE_N_SHINE;
    15a4:	4a24      	ldr	r2, [pc, #144]	; (1638 <UART0IntHandler+0xb4>)
    15a6:	7813      	ldrb	r3, [r2, #0]
    15a8:	f043 0302 	orr.w	r3, r3, #2
    15ac:	7013      	strb	r3, [r2, #0]
		i_trigger (devevent (UART_A, READ));
    15ae:	4b23      	ldr	r3, [pc, #140]	; (163c <UART0IntHandler+0xb8>)
    15b0:	681a      	ldr	r2, [r3, #0]
    15b2:	b19a      	cbz	r2, 15dc <UART0IntHandler+0x58>
    15b4:	4610      	mov	r0, r2
    15b6:	2300      	movs	r3, #0
    15b8:	f830 1b10 	ldrh.w	r1, [r0], #16
    15bc:	f001 0107 	and.w	r1, r1, #7
    15c0:	4299      	cmp	r1, r3
    15c2:	dd09      	ble.n	15d8 <UART0IntHandler+0x54>
    15c4:	f850 4033 	ldr.w	r4, [r0, r3, lsl #3]
    15c8:	3301      	adds	r3, #1
    15ca:	f514 7f81 	cmn.w	r4, #258	; 0x102
    15ce:	d1f7      	bne.n	15c0 <UART0IntHandler+0x3c>
    15d0:	eb02 03c3 	add.w	r3, r2, r3, lsl #3
    15d4:	889b      	ldrh	r3, [r3, #4]
    15d6:	8013      	strh	r3, [r2, #0]
    15d8:	6ad2      	ldr	r2, [r2, #44]	; 0x2c
    15da:	e7ea      	b.n	15b2 <UART0IntHandler+0x2e>
	}

	if (uart_a_room_in_tx && (__pi_uart->flags & UART_FLAGS_OUT)) {
    15dc:	4b14      	ldr	r3, [pc, #80]	; (1630 <UART0IntHandler+0xac>)
    15de:	699b      	ldr	r3, [r3, #24]
    15e0:	0699      	lsls	r1, r3, #26
    15e2:	d424      	bmi.n	162e <UART0IntHandler+0xaa>
    15e4:	4b13      	ldr	r3, [pc, #76]	; (1634 <UART0IntHandler+0xb0>)
    15e6:	799a      	ldrb	r2, [r3, #6]
    15e8:	0652      	lsls	r2, r2, #25
    15ea:	d520      	bpl.n	162e <UART0IntHandler+0xaa>
		_BIC (__pi_uart->flags, UART_FLAGS_OUT);
		RISE_N_SHINE;
		i_trigger (devevent (UART_A, WRITE));
    15ec:	f46f 7480 	mvn.w	r4, #256	; 0x100
		_BIC (__pi_uart->flags, UART_FLAGS_OUT);
    15f0:	799a      	ldrb	r2, [r3, #6]
    15f2:	f002 02bf 	and.w	r2, r2, #191	; 0xbf
    15f6:	719a      	strb	r2, [r3, #6]
		RISE_N_SHINE;
    15f8:	4a0f      	ldr	r2, [pc, #60]	; (1638 <UART0IntHandler+0xb4>)
    15fa:	7813      	ldrb	r3, [r2, #0]
    15fc:	f043 0302 	orr.w	r3, r3, #2
    1600:	7013      	strb	r3, [r2, #0]
		i_trigger (devevent (UART_A, WRITE));
    1602:	4b0e      	ldr	r3, [pc, #56]	; (163c <UART0IntHandler+0xb8>)
    1604:	681a      	ldr	r2, [r3, #0]
    1606:	b192      	cbz	r2, 162e <UART0IntHandler+0xaa>
    1608:	4610      	mov	r0, r2
    160a:	2300      	movs	r3, #0
    160c:	f830 1b10 	ldrh.w	r1, [r0], #16
    1610:	f001 0107 	and.w	r1, r1, #7
    1614:	4299      	cmp	r1, r3
    1616:	dd08      	ble.n	162a <UART0IntHandler+0xa6>
    1618:	f850 5033 	ldr.w	r5, [r0, r3, lsl #3]
    161c:	3301      	adds	r3, #1
    161e:	42a5      	cmp	r5, r4
    1620:	d1f8      	bne.n	1614 <UART0IntHandler+0x90>
    1622:	eb02 03c3 	add.w	r3, r2, r3, lsl #3
    1626:	889b      	ldrh	r3, [r3, #4]
    1628:	8013      	strh	r3, [r2, #0]
    162a:	6ad2      	ldr	r2, [r2, #44]	; 0x2c
    162c:	e7eb      	b.n	1606 <UART0IntHandler+0x82>
	}

	RTNI;
}
    162e:	bd30      	pop	{r4, r5, pc}
    1630:	40001000 	andmi	r1, r0, r0
    1634:	2000063c 	andcs	r0, r0, ip, lsr r6
    1638:	20000660 	andcs	r0, r0, r0, ror #12
    163c:	20000650 	andcs	r0, r0, r0, asr r6

00001640 <__buttons_setirq>:

// ============================================================================

#ifdef	BUTTON_LIST

void __buttons_setirq (int val) {
    1640:	b570      	push	{r4, r5, r6, lr}
    1642:	b672      	cpsid	i
    ASSERT( dioNumberLegal( dioNumber ));

    //
    // Clear the event status for the specified DIO.
    //
    HWREG( GPIO_BASE + GPIO_O_EVFLAGS31_0 ) = ( 1 << dioNumber );
    1644:	2101      	movs	r1, #1
	int i;
	lword bn;

	cli;
	for (i = 0; i < N_BUTTONS; i++) {
		bn = BUTTON_GPIO (__button_list [i]);
    1646:	4e0d      	ldr	r6, [pc, #52]	; (167c <__buttons_setirq+0x3c>)
    1648:	4d0d      	ldr	r5, [pc, #52]	; (1680 <__buttons_setirq+0x40>)
    164a:	8833      	ldrh	r3, [r6, #0]
		GPIO_clearEventDio (bn);
		HWREGBITW (IOC_BASE + (bn << 2), IOC_IOCFG0_EDGE_IRQ_EN_BITN) =
    164c:	4c0d      	ldr	r4, [pc, #52]	; (1684 <__buttons_setirq+0x44>)
		bn = BUTTON_GPIO (__button_list [i]);
    164e:	0a1b      	lsrs	r3, r3, #8
    1650:	fa01 f203 	lsl.w	r2, r1, r3
    1654:	f8c5 20e0 	str.w	r2, [r5, #224]	; 0xe0
		HWREGBITW (IOC_BASE + (bn << 2), IOC_IOCFG0_EDGE_IRQ_EN_BITN) =
    1658:	01da      	lsls	r2, r3, #7
		bn = BUTTON_GPIO (__button_list [i]);
    165a:	8873      	ldrh	r3, [r6, #2]
		HWREGBITW (IOC_BASE + (bn << 2), IOC_IOCFG0_EDGE_IRQ_EN_BITN) =
    165c:	f102 7281 	add.w	r2, r2, #16908288	; 0x1020000
		bn = BUTTON_GPIO (__button_list [i]);
    1660:	0a1b      	lsrs	r3, r3, #8
    1662:	4099      	lsls	r1, r3
		HWREGBITW (IOC_BASE + (bn << 2), IOC_IOCFG0_EDGE_IRQ_EN_BITN) =
    1664:	01db      	lsls	r3, r3, #7
    1666:	f103 7381 	add.w	r3, r3, #16908288	; 0x1020000
    166a:	4322      	orrs	r2, r4
    166c:	4323      	orrs	r3, r4
    166e:	6010      	str	r0, [r2, #0]
    1670:	f8c5 10e0 	str.w	r1, [r5, #224]	; 0xe0
    1674:	6018      	str	r0, [r3, #0]
  __ASM volatile ("cpsie i" : : : "memory");
    1676:	b662      	cpsie	i
			val;
	}
	sti;
}
    1678:	bd70      	pop	{r4, r5, r6, pc}
    167a:	bf00      	nop
    167c:	00005402 	andeq	r5, r0, r2, lsl #8
    1680:	40022000 	andmi	r2, r2, r0
    1684:	42000048 	andmi	r0, r0, #72	; 0x48

00001688 <__pinlist_setirq>:

#endif

#ifdef	INPUT_PIN_LIST

void __pinlist_setirq (int val) {
    1688:	b5f0      	push	{r4, r5, r6, r7, lr}
  __ASM volatile ("cpsid i" : : : "memory");
    168a:	b672      	cpsid	i

	int i;
	lword bn;

	cli;
	for (i = 0; i < N_PINLIST; i++) {
    168c:	2200      	movs	r2, #0
    168e:	2601      	movs	r6, #1
		bn = INPUT_PINLIST_GPIO (__input_pins [i]);
    1690:	4f09      	ldr	r7, [pc, #36]	; (16b8 <__pinlist_setirq+0x30>)
    1692:	4c0a      	ldr	r4, [pc, #40]	; (16bc <__pinlist_setirq+0x34>)
		GPIO_clearEventDio (bn);
		HWREGBITW (IOC_BASE + (bn << 2), IOC_IOCFG0_EDGE_IRQ_EN_BITN) =
    1694:	490a      	ldr	r1, [pc, #40]	; (16c0 <__pinlist_setirq+0x38>)
		bn = INPUT_PINLIST_GPIO (__input_pins [i]);
    1696:	5cbb      	ldrb	r3, [r7, r2]
	for (i = 0; i < N_PINLIST; i++) {
    1698:	3201      	adds	r2, #1
		bn = INPUT_PINLIST_GPIO (__input_pins [i]);
    169a:	f003 037f 	and.w	r3, r3, #127	; 0x7f
    169e:	fa06 f503 	lsl.w	r5, r6, r3
		HWREGBITW (IOC_BASE + (bn << 2), IOC_IOCFG0_EDGE_IRQ_EN_BITN) =
    16a2:	01db      	lsls	r3, r3, #7
    16a4:	f103 7381 	add.w	r3, r3, #16908288	; 0x1020000
    16a8:	430b      	orrs	r3, r1
	for (i = 0; i < N_PINLIST; i++) {
    16aa:	2a04      	cmp	r2, #4
    16ac:	f8c4 50e0 	str.w	r5, [r4, #224]	; 0xe0
		HWREGBITW (IOC_BASE + (bn << 2), IOC_IOCFG0_EDGE_IRQ_EN_BITN) =
    16b0:	6018      	str	r0, [r3, #0]
	for (i = 0; i < N_PINLIST; i++) {
    16b2:	d1f0      	bne.n	1696 <__pinlist_setirq+0xe>
  __ASM volatile ("cpsie i" : : : "memory");
    16b4:	b662      	cpsie	i
			val;
	}
	sti;
}
    16b6:	bdf0      	pop	{r4, r5, r6, r7, pc}
    16b8:	000053fd 	strdeq	r5, [r0], -sp
    16bc:	40022000 	andmi	r2, r2, r0
    16c0:	42000048 	andmi	r0, r0, #72	; 0x48

000016c4 <GPIOIntHandler>:
void GPIOIntHandler () {
    16c4:	b538      	push	{r3, r4, r5, lr}
if (buttons_int) {
    16c6:	4b25      	ldr	r3, [pc, #148]	; (175c <GPIOIntHandler+0x98>)
    16c8:	f8d3 30e0 	ldr.w	r3, [r3, #224]	; 0xe0
    16cc:	f413 4fc0 	tst.w	r3, #24576	; 0x6000
    16d0:	d01e      	beq.n	1710 <GPIOIntHandler+0x4c>
	buttons_disable ();
    16d2:	2000      	movs	r0, #0
    16d4:	f7ff ffb4 	bl	1640 <__buttons_setirq>
	i_trigger ((aword)&__button_list);
    16d8:	4b21      	ldr	r3, [pc, #132]	; (1760 <GPIOIntHandler+0x9c>)
    16da:	4c22      	ldr	r4, [pc, #136]	; (1764 <GPIOIntHandler+0xa0>)
    16dc:	681a      	ldr	r2, [r3, #0]
    16de:	b192      	cbz	r2, 1706 <GPIOIntHandler+0x42>
    16e0:	4610      	mov	r0, r2
    16e2:	2300      	movs	r3, #0
    16e4:	f830 1b10 	ldrh.w	r1, [r0], #16
    16e8:	f001 0107 	and.w	r1, r1, #7
    16ec:	4299      	cmp	r1, r3
    16ee:	dd08      	ble.n	1702 <GPIOIntHandler+0x3e>
    16f0:	f850 5033 	ldr.w	r5, [r0, r3, lsl #3]
    16f4:	3301      	adds	r3, #1
    16f6:	42a5      	cmp	r5, r4
    16f8:	d1f8      	bne.n	16ec <GPIOIntHandler+0x28>
    16fa:	eb02 03c3 	add.w	r3, r2, r3, lsl #3
    16fe:	889b      	ldrh	r3, [r3, #4]
    1700:	8013      	strh	r3, [r2, #0]
    1702:	6ad2      	ldr	r2, [r2, #44]	; 0x2c
    1704:	e7eb      	b.n	16de <GPIOIntHandler+0x1a>
	RISE_N_SHINE;
    1706:	4a18      	ldr	r2, [pc, #96]	; (1768 <GPIOIntHandler+0xa4>)
    1708:	7813      	ldrb	r3, [r2, #0]
    170a:	f043 0302 	orr.w	r3, r3, #2
    170e:	7013      	strb	r3, [r2, #0]
if (pin_sensor_int) {
    1710:	4b12      	ldr	r3, [pc, #72]	; (175c <GPIOIntHandler+0x98>)
    1712:	f8d3 30e0 	ldr.w	r3, [r3, #224]	; 0xe0
    1716:	f013 5ff0 	tst.w	r3, #503316480	; 0x1e000000
    171a:	d01d      	beq.n	1758 <GPIOIntHandler+0x94>
	i_trigger ((aword)(&__input_pins));
    171c:	4b10      	ldr	r3, [pc, #64]	; (1760 <GPIOIntHandler+0x9c>)
    171e:	4c13      	ldr	r4, [pc, #76]	; (176c <GPIOIntHandler+0xa8>)
    1720:	6818      	ldr	r0, [r3, #0]
    1722:	b190      	cbz	r0, 174a <GPIOIntHandler+0x86>
    1724:	4601      	mov	r1, r0
    1726:	2300      	movs	r3, #0
    1728:	f831 2b10 	ldrh.w	r2, [r1], #16
    172c:	f002 0207 	and.w	r2, r2, #7
    1730:	429a      	cmp	r2, r3
    1732:	dd08      	ble.n	1746 <GPIOIntHandler+0x82>
    1734:	f851 5033 	ldr.w	r5, [r1, r3, lsl #3]
    1738:	3301      	adds	r3, #1
    173a:	42a5      	cmp	r5, r4
    173c:	d1f8      	bne.n	1730 <GPIOIntHandler+0x6c>
    173e:	eb00 03c3 	add.w	r3, r0, r3, lsl #3
    1742:	889b      	ldrh	r3, [r3, #4]
    1744:	8003      	strh	r3, [r0, #0]
    1746:	6ac0      	ldr	r0, [r0, #44]	; 0x2c
    1748:	e7eb      	b.n	1722 <GPIOIntHandler+0x5e>
	__pinsen_disable_and_clear;
    174a:	f7ff ff9d 	bl	1688 <__pinlist_setirq>
	RISE_N_SHINE;
    174e:	4a06      	ldr	r2, [pc, #24]	; (1768 <GPIOIntHandler+0xa4>)
    1750:	7813      	ldrb	r3, [r2, #0]
    1752:	f043 0302 	orr.w	r3, r3, #2
    1756:	7013      	strb	r3, [r2, #0]
}
    1758:	bd38      	pop	{r3, r4, r5, pc}
    175a:	bf00      	nop
    175c:	40022000 	andmi	r2, r2, r0
    1760:	20000650 	andcs	r0, r0, r0, asr r6
    1764:	00005402 	andeq	r5, r0, r2, lsl #8
    1768:	20000660 	andcs	r0, r0, r0, ror #12
    176c:	000053fd 	strdeq	r5, [r0], -sp

00001770 <system_init>:
#endif

// ============================================================================
// ============================================================================

void system_init () {
    1770:	e92d 41f0 	stmdb	sp!, {r4, r5, r6, r7, r8, lr}

	__pi_ondomain (PRCM_DOMAIN_PERIPH);

	PRCMPeripheralRunEnable (PRCM_PERIPH_GPIO);
    1774:	f04f 5480 	mov.w	r4, #268435456	; 0x10000000
	__pi_ondomain (PRCM_DOMAIN_PERIPH);
    1778:	2004      	movs	r0, #4
    177a:	f7ff fceb 	bl	1154 <__pi_ondomain>
	PRCMPeripheralRunEnable (PRCM_PERIPH_GPIO);
    177e:	f8d4 31b8 	ldr.w	r3, [r4, #440]	; 0x1b8
    1782:	f44f 60a0 	mov.w	r0, #1280	; 0x500
    1786:	69db      	ldr	r3, [r3, #28]
    1788:	4798      	blx	r3
	PRCMPeripheralSleepEnable (PRCM_PERIPH_GPIO);
    178a:	f8d4 31b8 	ldr.w	r3, [r4, #440]	; 0x1b8
    178e:	f44f 60a0 	mov.w	r0, #1280	; 0x500
    1792:	6a5b      	ldr	r3, [r3, #36]	; 0x24
    1794:	4798      	blx	r3
	PRCMPeripheralDeepSleepEnable (PRCM_PERIPH_GPIO);
    1796:	f8d4 31b8 	ldr.w	r3, [r4, #440]	; 0x1b8
    179a:	f44f 60a0 	mov.w	r0, #1280	; 0x500
    179e:	6adb      	ldr	r3, [r3, #44]	; 0x2c
PRCMLoadSet(void)
{
    //
    // Enable the update of all load related registers.
    //
    HWREG(PRCM_NONBUF_BASE + PRCM_O_CLKLOADCTL) = PRCM_CLKLOADCTL_LOAD;
    17a0:	2501      	movs	r5, #1
    17a2:	4798      	blx	r3
	for (int i = 0; i < sizeof (port_confs) / sizeof (lword); i++) {
    17a4:	2000      	movs	r0, #0
    17a6:	4b50      	ldr	r3, [pc, #320]	; (18e8 <system_init+0x178>)
    17a8:	4f50      	ldr	r7, [pc, #320]	; (18ec <system_init+0x17c>)
		HWREG (IOC_BASE + (pin << 2)) = port_confs [i] & 0x7f077f3f;
    17aa:	f8df c144 	ldr.w	ip, [pc, #324]	; 18f0 <system_init+0x180>
    HWREGBITW( GPIO_BASE + GPIO_O_DOE31_0, dioNumber ) = outputEnableValue;
    17ae:	f8df e144 	ldr.w	lr, [pc, #324]	; 18f4 <system_init+0x184>
    17b2:	4c51      	ldr	r4, [pc, #324]	; (18f8 <system_init+0x188>)
    17b4:	629d      	str	r5, [r3, #40]	; 0x28
		pin = (port_confs [i] >> 19) & 0x1f;
    17b6:	f857 2b04 	ldr.w	r2, [r7], #4
	for (int i = 0; i < sizeof (port_confs) / sizeof (lword); i++) {
    17ba:	3001      	adds	r0, #1
		pin = (port_confs [i] >> 19) & 0x1f;
    17bc:	f3c2 43c4 	ubfx	r3, r2, #19, #5
		HWREG (IOC_BASE + (pin << 2)) = port_confs [i] & 0x7f077f3f;
    17c0:	0099      	lsls	r1, r3, #2
    17c2:	f101 4680 	add.w	r6, r1, #1073741824	; 0x40000000
    17c6:	f506 2601 	add.w	r6, r6, #528384	; 0x81000
    17ca:	ea02 080c 	and.w	r8, r2, ip
    17ce:	f8c6 8000 	str.w	r8, [r6]
		if (port_confs [i] & 0x80)
    17d2:	0616      	lsls	r6, r2, #24
    17d4:	bf44      	itt	mi
    17d6:	ea41 010e 	orrmi.w	r1, r1, lr
    17da:	600d      	strmi	r5, [r1, #0]
    HWREG( GPIO_BASE + GPIO_O_DOUTSET31_0 ) = ( 1 << dioNumber );
    17dc:	fa05 f303 	lsl.w	r3, r5, r3
		if (port_confs [i] & 0x40)
    17e0:	0652      	lsls	r2, r2, #25
    17e2:	bf4c      	ite	mi
    17e4:	f8c4 3090 	strmi.w	r3, [r4, #144]	; 0x90
    HWREG( GPIO_BASE + GPIO_O_DOUTCLR31_0 ) = ( 1 << dioNumber );
    17e8:	f8c4 30a0 	strpl.w	r3, [r4, #160]	; 0xa0
	for (int i = 0; i < sizeof (port_confs) / sizeof (lword); i++) {
    17ec:	2811      	cmp	r0, #17
    17ee:	d1e2      	bne.n	17b6 <system_init+0x46>
    HWREG( GPIO_BASE + GPIO_O_DOUTSET31_0 ) = ( 1 << dioNumber );
    17f0:	2540      	movs	r5, #64	; 0x40
    17f2:	2680      	movs	r6, #128	; 0x80

	// Initialize DIO ports
	port_config ();

#if	LEDS_DRIVER
	all_leds_blink;
    17f4:	4941      	ldr	r1, [pc, #260]	; (18fc <system_init+0x18c>)
    17f6:	f8c4 5090 	str.w	r5, [r4, #144]	; 0x90
    17fa:	f8c4 6090 	str.w	r6, [r4, #144]	; 0x90
    17fe:	780b      	ldrb	r3, [r1, #0]
    1800:	780b      	ldrb	r3, [r1, #0]
    1802:	20c8      	movs	r0, #200	; 0xc8
    1804:	f36f 1307 	bfc	r3, #4, #4
    1808:	700b      	strb	r3, [r1, #0]
    180a:	f7ff fc8d 	bl	1128 <mdelay>
    HWREG( GPIO_BASE + GPIO_O_DOUTCLR31_0 ) = ( 1 << dioNumber );
    180e:	f8c4 50a0 	str.w	r5, [r4, #160]	; 0xa0
    1812:	f8c4 60a0 	str.w	r6, [r4, #160]	; 0xa0
    1816:	780b      	ldrb	r3, [r1, #0]
    1818:	780b      	ldrb	r3, [r1, #0]
//
//*****************************************************************************
__STATIC_INLINE void
AONRTCIncValueCh2Set(uint32_t ui32IncValue)
{
    HWREG(AON_RTC_BASE + AON_RTC_O_CH2CMPINC) = ui32IncValue;
    181a:	4e39      	ldr	r6, [pc, #228]	; (1900 <system_init+0x190>)
    181c:	f36f 1307 	bfc	r3, #4, #4
    1820:	20c8      	movs	r0, #200	; 0xc8
    1822:	700b      	strb	r3, [r1, #0]
    1824:	f7ff fc80 	bl	1128 <mdelay>
    1828:	6275      	str	r5, [r6, #36]	; 0x24

	// The autoincrement value on channel 2 set to 1 msec
	AONRTCIncValueCh2Set (TCI_TINCR (1));
	// Enable continuous operation of channel 2
	HWREGBITW (AON_RTC_BASE + AON_RTC_O_CHCTL,
		AON_RTC_CHCTL_CH2_CONT_EN_BITN) = 1;
    182a:	2501      	movs	r5, #1
		// For the radio
		AON_RTC_CTL_RTC_UPD_EN |
		AON_RTC_CTL_EN;

	// Enable RTC interrupts
	IntEnable (INT_AON_RTC_COMB);
    182c:	f04f 5480 	mov.w	r4, #268435456	; 0x10000000
		AON_RTC_CHCTL_CH2_CONT_EN_BITN) = 1;
    1830:	4b34      	ldr	r3, [pc, #208]	; (1904 <system_init+0x194>)
	IntEnable (INT_AON_RTC_COMB);
    1832:	2014      	movs	r0, #20
		AON_RTC_CHCTL_CH2_CONT_EN_BITN) = 1;
    1834:	f8c3 52c8 	str.w	r5, [r3, #712]	; 0x2c8
	HWREG (AON_RTC_BASE + AON_RTC_O_CTL) =
    1838:	4b33      	ldr	r3, [pc, #204]	; (1908 <system_init+0x198>)
    183a:	6033      	str	r3, [r6, #0]
	IntEnable (INT_AON_RTC_COMB);
    183c:	f8d4 31b0 	ldr.w	r3, [r4, #432]	; 0x1b0
    1840:	691b      	ldr	r3, [r3, #16]
    1842:	4798      	blx	r3

	// Initialize the memory allocator
	__pi_malloc_init ();
    1844:	f000 fbec 	bl	2020 <__pi_malloc_init>

	// Enable GPIO interrupts
	IntEnable (INT_AON_GPIO_EDGE);
    1848:	f8d4 31b0 	ldr.w	r3, [r4, #432]	; 0x1b0
    184c:	2010      	movs	r0, #16
    184e:	691b      	ldr	r3, [r3, #16]
    1850:	4798      	blx	r3
		EMERGENCY_STARTUP_ACTION;
	}
#endif

#ifdef	NEED_SERIAL_DOMAIN
	__pi_ondomain (PRCM_DOMAIN_SERIAL);
    1852:	2002      	movs	r0, #2
    1854:	f7ff fc7e 	bl	1154 <__pi_ondomain>
	PRCMPeripheralRunEnable (PRCM_PERIPH_UART0);
    1858:	f8d4 31b8 	ldr.w	r3, [r4, #440]	; 0x1b8
    185c:	f44f 7000 	mov.w	r0, #512	; 0x200
    1860:	69db      	ldr	r3, [r3, #28]
    1862:	4798      	blx	r3
	PRCMPeripheralSleepEnable (PRCM_PERIPH_UART0);
    1864:	f8d4 31b8 	ldr.w	r3, [r4, #440]	; 0x1b8
    1868:	f44f 7000 	mov.w	r0, #512	; 0x200
    186c:	6a5b      	ldr	r3, [r3, #36]	; 0x24
    186e:	4798      	blx	r3
	PRCMPeripheralDeepSleepEnable (PRCM_PERIPH_UART0);
    1870:	f8d4 31b8 	ldr.w	r3, [r4, #440]	; 0x1b8
    1874:	f44f 7000 	mov.w	r0, #512	; 0x200
    1878:	6adb      	ldr	r3, [r3, #44]	; 0x2c
    187a:	4798      	blx	r3
	urates [0] = UART_RATE / 100;
    187c:	2260      	movs	r2, #96	; 0x60
    187e:	4b1a      	ldr	r3, [pc, #104]	; (18e8 <system_init+0x178>)
    1880:	629d      	str	r5, [r3, #40]	; 0x28
    1882:	4b22      	ldr	r3, [pc, #136]	; (190c <system_init+0x19c>)
    1884:	801a      	strh	r2, [r3, #0]
	reinit_uart ();
    1886:	f7ff fde7 	bl	1458 <reinit_uart>
	__pi_init_actuators ();
#endif

#ifdef	EXTRA_INITIALIZERS
	// Extra initialization
	EXTRA_INITIALIZERS;
    188a:	f001 f955 	bl	2b38 <ee_open>
    188e:	f001 f95d 	bl	2b4c <ee_close>
#endif
	// If waking from shutdown, unfreeze the I/O
	if (SysCtrlResetSourceGet () == RSTSRC_WAKEUP_FROM_SHUTDOWN) {
    1892:	f003 fa29 	bl	4ce8 <NOROM_SysCtrlResetSourceGet>
    1896:	2808      	cmp	r0, #8
    1898:	d118      	bne.n	18cc <system_init+0x15c>
AONIOCFreezeDisable(void)
{
    //
    // Set the AON IOC latches as transparent.
    //
    HWREG(AON_IOC_BASE + AON_IOC_O_IOCLATCH) = AON_IOC_IOCLATCH_EN;
    189a:	4b1d      	ldr	r3, [pc, #116]	; (1910 <system_init+0x1a0>)
    189c:	60dd      	str	r5, [r3, #12]
{
    //
    // Open the IO latches at AON_IOC level and in the padring
    //
    AONIOCFreezeDisable();
    HWREG(AON_SYSCTL_BASE + AON_SYSCTL_O_SLEEPCTL) = 1;
    189e:	f5a3 4380 	sub.w	r3, r3, #16384	; 0x4000
    18a2:	609d      	str	r5, [r3, #8]
    HWREG(AON_RTC_BASE + AON_RTC_O_SYNC);
    18a4:	6af3      	ldr	r3, [r6, #44]	; 0x2c
	}

#if	MAX_DEVICES
	for (int i = UART; i < MAX_DEVICES; i++)
		if (devinit [i] . init != NULL)
			devinit [i] . init (devinit [i] . param);
    18a6:	2000      	movs	r0, #0
    18a8:	f7ff fc22 	bl	10f0 <devinit_uart>
    HWREG(ui32Base + UART_O_IMSC) |= ui32IntFlags;
    18ac:	4a19      	ldr	r2, [pc, #100]	; (1914 <system_init+0x1a4>)
#endif

#ifdef	N_UARTS
	// The same for UART_DRIVER and UART_TCV
	enable_uart_interrupts ();
	IntEnable (INT_UART0_COMB);
    18ae:	2015      	movs	r0, #21
    18b0:	6b93      	ldr	r3, [r2, #56]	; 0x38
    18b2:	f043 0370 	orr.w	r3, r3, #112	; 0x70
    18b6:	6393      	str	r3, [r2, #56]	; 0x38
    18b8:	f04f 5380 	mov.w	r3, #268435456	; 0x10000000
    18bc:	f8d3 31b0 	ldr.w	r3, [r3, #432]	; 0x1b0
    18c0:	691b      	ldr	r3, [r3, #16]
    18c2:	4798      	blx	r3
#endif
	// Kick the auxiliary timer in case something is needed by the
	// drivers
	tci_run_auxiliary_timer ();
}
    18c4:	e8bd 41f0 	ldmia.w	sp!, {r4, r5, r6, r7, r8, lr}
	tci_run_auxiliary_timer ();
    18c8:	f7ff bcd2 	b.w	1270 <tci_run_auxiliary_timer>
		diag ("");
    18cc:	4812      	ldr	r0, [pc, #72]	; (1918 <system_init+0x1a8>)
    18ce:	f000 fc95 	bl	21fc <diag>
		diag ("PicOS v" SYSVER_S "/" SYSVER_R
    18d2:	4812      	ldr	r0, [pc, #72]	; (191c <system_init+0x1ac>)
    18d4:	f000 fc92 	bl	21fc <diag>
			(word)((aword)STACK_END - (aword)(&__bss_end__)));
    18d8:	4911      	ldr	r1, [pc, #68]	; (1920 <system_init+0x1b0>)
		diag ("Leftover RAM: %d bytes",
    18da:	4812      	ldr	r0, [pc, #72]	; (1924 <system_init+0x1b4>)
    18dc:	f5c1 4198 	rsb	r1, r1, #19456	; 0x4c00
    18e0:	b289      	uxth	r1, r1
    18e2:	f000 fc8b 	bl	21fc <diag>
    18e6:	e7de      	b.n	18a6 <system_init+0x136>
    18e8:	60082000 	andvs	r2, r8, r0
    18ec:	000052e4 	andeq	r5, r0, r4, ror #5
    18f0:	7f077f3f 	svcvc	0x00077f3f
    18f4:	42441a00 	submi	r1, r4, #0, 20
    18f8:	40022000 	andmi	r2, r2, r0
    18fc:	20000660 	andcs	r0, r0, r0, ror #12
    1900:	40092000 	andmi	r2, r9, r0
    1904:	43240000 			; <UNDEFINED> instruction: 0x43240000
    1908:	00050003 	andeq	r0, r5, r3
    190c:	2000064c 	andcs	r0, r0, ip, asr #12
    1910:	40094000 	andmi	r4, r9, r0
    1914:	40001000 	andmi	r1, r0, r0
    1918:	000051fa 	strdeq	r5, [r0], -sl
    191c:	0000526e 	andeq	r5, r0, lr, ror #4
    1920:	20000754 	andcs	r0, r0, r4, asr r7
    1924:	000052ba 			; <UNDEFINED> instruction: 0x000052ba

00001928 <setpowermode>:
//
	if (mode > 3)
		// This is the maximum
		mode = 3;

	__pi_systat.effpdm = ((__pi_systat.reqpdm = mode) < 2 ||
    1928:	2803      	cmp	r0, #3
    192a:	4603      	mov	r3, r0
    192c:	bf28      	it	cs
    192e:	2303      	movcs	r3, #3
    1930:	4a05      	ldr	r2, [pc, #20]	; (1948 <setpowermode+0x20>)
    1932:	b2db      	uxtb	r3, r3
    1934:	2801      	cmp	r0, #1
    1936:	7093      	strb	r3, [r2, #2]
    1938:	d904      	bls.n	1944 <setpowermode+0x1c>
	    (__pi_systat.ondmns & PRCM_DOMAIN_RFCORE) == 0) ?
    193a:	6851      	ldr	r1, [r2, #4]
	__pi_systat.effpdm = ((__pi_systat.reqpdm = mode) < 2 ||
    193c:	f011 0f01 	tst.w	r1, #1
    1940:	bf18      	it	ne
    1942:	2301      	movne	r3, #1
    1944:	70d3      	strb	r3, [r2, #3]
		mode : 1;
}
    1946:	4770      	bx	lr
    1948:	20000660 	andcs	r0, r0, r0, ror #12

0000194c <__pi_release>:
	return sc;
}

#endif

__attribute__ ((noreturn)) void __pi_release () {
    194c:	e92d 4888 	stmdb	sp!, {r3, r7, fp, lr}
  \details Assigns the given value to the Main Stack Pointer (MSP).
  \param [in]    topOfMainStack  Main Stack Pointer value to set
 */
__attribute__((always_inline)) __STATIC_INLINE void __set_MSP(uint32_t topOfMainStack)
{
  __ASM volatile ("MSR msp, %0" : : "r" (topOfMainStack) : "sp");
    1950:	4b87      	ldr	r3, [pc, #540]	; (1b70 <__pi_release+0x224>)
    1952:	af00      	add	r7, sp, #0
    1954:	f383 8808 	msr	MSP, r3

	__set_MSP ((lword)(STACK_START));

	check_stack_overflow;
    1958:	f5a3 5380 	sub.w	r3, r3, #4096	; 0x1000
    195c:	f8d3 2bfc 	ldr.w	r2, [r3, #3068]	; 0xbfc
    1960:	4b84      	ldr	r3, [pc, #528]	; (1b74 <__pi_release+0x228>)
    1962:	429a      	cmp	r2, r3
    1964:	d12a      	bne.n	19bc <__pi_release+0x70>
#endif
	// Catch up with time
	update_n_wake (MAX_WORD, NO);

	// Run the first ready process
	for_all_tasks (__pi_curr) {
    1966:	f8df 8210 	ldr.w	r8, [pc, #528]	; 1b78 <__pi_release+0x22c>
	update_n_wake (MAX_WORD, NO);
    196a:	2100      	movs	r1, #0
    196c:	f64f 70ff 	movw	r0, #65535	; 0xffff
    1970:	f000 f9f6 	bl	1d60 <update_n_wake>
	for_all_tasks (__pi_curr) {
    1974:	4b81      	ldr	r3, [pc, #516]	; (1b7c <__pi_release+0x230>)
    1976:	681b      	ldr	r3, [r3, #0]
    1978:	f8c8 3000 	str.w	r3, [r8]
    197c:	f8d8 3000 	ldr.w	r3, [r8]
    1980:	bb03      	cbnz	r3, 19c4 <__pi_release+0x78>
	entropy++;
#endif

#else	/* NOT SPIN_WHEN_HALTED */

	__SLEEP;
    1982:	4c7f      	ldr	r4, [pc, #508]	; (1b80 <__pi_release+0x234>)
	system_event_count ++;
    1984:	f8df a1fc 	ldr.w	sl, [pc, #508]	; 1b84 <__pi_release+0x238>
  __ASM volatile ("cpsid i" : : : "memory");
    1988:	b672      	cpsid	i
    198a:	7823      	ldrb	r3, [r4, #0]
    198c:	0798      	lsls	r0, r3, #30
    198e:	f3c3 0540 	ubfx	r5, r3, #1, #1
    1992:	f100 80e7 	bmi.w	1b64 <__pi_release+0x218>
    1996:	f8da 3000 	ldr.w	r3, [sl]
	switch (__pi_systat.effpdm) {
    199a:	78e2      	ldrb	r2, [r4, #3]
	system_event_count ++;
    199c:	3301      	adds	r3, #1
	switch (__pi_systat.effpdm) {
    199e:	2a01      	cmp	r2, #1
	system_event_count ++;
    19a0:	f8ca 3000 	str.w	r3, [sl]
	switch (__pi_systat.effpdm) {
    19a4:	b2d3      	uxtb	r3, r2
    19a6:	d017      	beq.n	19d8 <__pi_release+0x8c>
    19a8:	2b02      	cmp	r3, #2
    19aa:	d03d      	beq.n	1a28 <__pi_release+0xdc>
    19ac:	2b00      	cmp	r3, #0
    19ae:	f040 80ab 	bne.w	1b08 <__pi_release+0x1bc>
			__WFI ();
    19b2:	bf30      	wfi
  __ASM volatile ("cpsie i" : : : "memory");
    19b4:	b662      	cpsie	i
    19b6:	bf00      	nop
    19b8:	bf00      	nop
    19ba:	e7e5      	b.n	1988 <__pi_release+0x3c>
	check_stack_overflow;
    19bc:	200b      	movs	r0, #11
    19be:	4972      	ldr	r1, [pc, #456]	; (1b88 <__pi_release+0x23c>)
    19c0:	f7ff fc0a 	bl	11d8 <__pi_syserror>
		if (__pi_curr->code != NULL && !waiting (__pi_curr)) {
    19c4:	685a      	ldr	r2, [r3, #4]
    19c6:	b12a      	cbz	r2, 19d4 <__pi_release+0x88>
    19c8:	8818      	ldrh	r0, [r3, #0]
    19ca:	0704      	lsls	r4, r0, #28
    19cc:	d102      	bne.n	19d4 <__pi_release+0x88>
			(__pi_curr->code) (tstate (__pi_curr));
    19ce:	0900      	lsrs	r0, r0, #4
    19d0:	4790      	blx	r2
			goto Redo;
    19d2:	e7ca      	b.n	196a <__pi_release+0x1e>
	for_all_tasks (__pi_curr) {
    19d4:	6adb      	ldr	r3, [r3, #44]	; 0x2c
    19d6:	e7cf      	b.n	1978 <__pi_release+0x2c>
			HWREG (PRCM_BASE + PRCM_O_PDCTL1VIMS) |=
    19d8:	4b6c      	ldr	r3, [pc, #432]	; (1b8c <__pi_release+0x240>)
			PRCMPowerDomainOff (PRCM_DOMAIN_CPU);
    19da:	2020      	movs	r0, #32
			HWREG (PRCM_BASE + PRCM_O_PDCTL1VIMS) |=
    19dc:	f8d3 218c 	ldr.w	r2, [r3, #396]	; 0x18c
    19e0:	f042 0201 	orr.w	r2, r2, #1
    19e4:	f8c3 218c 	str.w	r2, [r3, #396]	; 0x18c
//
//*****************************************************************************
__STATIC_INLINE void
PRCMCacheRetentionEnable( void )
{
   HWREG( PRCM_BASE + PRCM_O_RAMRETEN ) |= PRCM_RAMRETEN_VIMS_M;
    19e8:	f8d3 2224 	ldr.w	r2, [r3, #548]	; 0x224
    19ec:	f042 0203 	orr.w	r2, r2, #3
    19f0:	f8c3 2224 	str.w	r2, [r3, #548]	; 0x224
			PRCMPowerDomainOff (PRCM_DOMAIN_CPU);
    19f4:	f04f 5380 	mov.w	r3, #268435456	; 0x10000000
    19f8:	f8d3 31b8 	ldr.w	r3, [r3, #440]	; 0x1b8
    19fc:	699b      	ldr	r3, [r3, #24]
    19fe:	4798      	blx	r3
SysCtrlAonSync(void)
{
    //
    // Sync the AON interface
    //
    HWREG(AON_RTC_BASE + AON_RTC_O_SYNC);
    1a00:	4b63      	ldr	r3, [pc, #396]	; (1b90 <__pi_release+0x244>)
    1a02:	6adb      	ldr	r3, [r3, #44]	; 0x2c
			HWREG (NVIC_SYS_CTRL) |= NVIC_SYS_CTRL_SLEEPDEEP;
    1a04:	f04f 23e0 	mov.w	r3, #3758153728	; 0xe000e000
    1a08:	f8d3 2d10 	ldr.w	r2, [r3, #3344]	; 0xd10
    1a0c:	f042 0204 	orr.w	r2, r2, #4
    1a10:	f8c3 2d10 	str.w	r2, [r3, #3344]	; 0xd10
			__WFI ();
    1a14:	bf30      	wfi
			HWREG (NVIC_SYS_CTRL) &= ~(NVIC_SYS_CTRL_SLEEPDEEP);
    1a16:	f8d3 2d10 	ldr.w	r2, [r3, #3344]	; 0xd10
    1a1a:	f022 0204 	bic.w	r2, r2, #4
    1a1e:	f8c3 2d10 	str.w	r2, [r3, #3344]	; 0xd10
    1a22:	4b5b      	ldr	r3, [pc, #364]	; (1b90 <__pi_release+0x244>)
    1a24:	6adb      	ldr	r3, [r3, #44]	; 0x2c
}
    1a26:	e7c5      	b.n	19b4 <__pi_release+0x68>
    HWREG(PRCM_NONBUF_BASE + PRCM_O_CLKLOADCTL) = PRCM_CLKLOADCTL_LOAD;
    1a28:	2601      	movs	r6, #1
			PRCMPowerDomainOff (__pi_systat.ondmns |
    1a2a:	f04f 5980 	mov.w	r9, #268435456	; 0x10000000
    HWREG(AON_IOC_BASE + AON_IOC_O_IOCLATCH) = 0x0;
    1a2e:	4b59      	ldr	r3, [pc, #356]	; (1b94 <__pi_release+0x248>)
    // Check the arguments.
    ASSERT((ui32Mode == AONWUC_AUX_WAKEUP) ||
           (ui32Mode == AONWUC_AUX_ALLOW_SLEEP));

    // Wake up the AUX domain.
    HWREGBITW(AON_WUC_BASE + AON_WUC_O_AUXCTL, AON_WUC_AUXCTL_AUX_FORCE_ON_BITN) = ui32Mode;
    1a30:	f8df b164 	ldr.w	fp, [pc, #356]	; 1b98 <__pi_release+0x24c>
    1a34:	60dd      	str	r5, [r3, #12]
    1a36:	f8cb 5200 	str.w	r5, [fp, #512]	; 0x200
    HWREG(AON_RTC_BASE + AON_RTC_O_SYNC);
    1a3a:	f5a3 5300 	sub.w	r3, r3, #8192	; 0x2000
    1a3e:	6ada      	ldr	r2, [r3, #44]	; 0x2c
    1a40:	4a56      	ldr	r2, [pc, #344]	; (1b9c <__pi_release+0x250>)
    1a42:	6296      	str	r6, [r2, #40]	; 0x28
    1a44:	6860      	ldr	r0, [r4, #4]
    1a46:	f8d9 21b8 	ldr.w	r2, [r9, #440]	; 0x1b8
    1a4a:	f040 0020 	orr.w	r0, r0, #32
    1a4e:	6992      	ldr	r2, [r2, #24]
    1a50:	4790      	blx	r2
    HWREGBITW(PRCM_BASE + PRCM_O_VDCTL, PRCM_VDCTL_ULDO_BITN) = ui32Enable;
    1a52:	4a53      	ldr	r2, [pc, #332]	; (1ba0 <__pi_release+0x254>)
//
//*****************************************************************************
__STATIC_INLINE void
PRCMCacheRetentionDisable( void )
{
   HWREG( PRCM_BASE + PRCM_O_RAMRETEN ) &= ~PRCM_RAMRETEN_VIMS_M;
    1a54:	4b4d      	ldr	r3, [pc, #308]	; (1b8c <__pi_release+0x240>)
    HWREGBITW(PRCM_BASE + PRCM_O_VDCTL, PRCM_VDCTL_ULDO_BITN) = ui32Enable;
    1a56:	f8c2 6180 	str.w	r6, [r2, #384]	; 0x180
   HWREG( PRCM_BASE + PRCM_O_RAMRETEN ) &= ~PRCM_RAMRETEN_VIMS_M;
    1a5a:	f8d3 2224 	ldr.w	r2, [r3, #548]	; 0x224
			VIMSModeSet (VIMS_BASE, VIMS_MODE_OFF);
    1a5e:	2103      	movs	r1, #3
    1a60:	f022 0203 	bic.w	r2, r2, #3
    1a64:	f8c3 2224 	str.w	r2, [r3, #548]	; 0x224
    1a68:	f8d9 21d8 	ldr.w	r2, [r9, #472]	; 0x1d8
    1a6c:	484d      	ldr	r0, [pc, #308]	; (1ba4 <__pi_release+0x258>)
    1a6e:	6852      	ldr	r2, [r2, #4]
    1a70:	4790      	blx	r2
			SysCtrlSetRechargeBeforePowerDown
    1a72:	4628      	mov	r0, r5
    1a74:	f002 fff8 	bl	4a68 <NOROM_SysCtrlSetRechargeBeforePowerDown>
    1a78:	4b45      	ldr	r3, [pc, #276]	; (1b90 <__pi_release+0x244>)
    1a7a:	6adb      	ldr	r3, [r3, #44]	; 0x2c
			HWREG (NVIC_SYS_CTRL) |= NVIC_SYS_CTRL_SLEEPDEEP;
    1a7c:	f04f 23e0 	mov.w	r3, #3758153728	; 0xe000e000
    1a80:	f8d3 2d10 	ldr.w	r2, [r3, #3344]	; 0xd10
    1a84:	f042 0204 	orr.w	r2, r2, #4
    1a88:	f8c3 2d10 	str.w	r2, [r3, #3344]	; 0xd10
			__WFI ();
    1a8c:	bf30      	wfi
			HWREG (NVIC_SYS_CTRL) &= ~(NVIC_SYS_CTRL_SLEEPDEEP);
    1a8e:	f8d3 2d10 	ldr.w	r2, [r3, #3344]	; 0xd10
			VIMSModeSet (VIMS_BASE, VIMS_MODE_ENABLED);
    1a92:	4631      	mov	r1, r6
			HWREG (NVIC_SYS_CTRL) &= ~(NVIC_SYS_CTRL_SLEEPDEEP);
    1a94:	f022 0204 	bic.w	r2, r2, #4
    1a98:	f8c3 2d10 	str.w	r2, [r3, #3344]	; 0xd10
			VIMSModeSet (VIMS_BASE, VIMS_MODE_ENABLED);
    1a9c:	f8d9 31d8 	ldr.w	r3, [r9, #472]	; 0x1d8
    1aa0:	4840      	ldr	r0, [pc, #256]	; (1ba4 <__pi_release+0x258>)
    1aa2:	685b      	ldr	r3, [r3, #4]
    1aa4:	4798      	blx	r3
   HWREG( PRCM_BASE + PRCM_O_RAMRETEN ) |= PRCM_RAMRETEN_VIMS_M;
    1aa6:	4a39      	ldr	r2, [pc, #228]	; (1b8c <__pi_release+0x240>)
    1aa8:	f8d2 3224 	ldr.w	r3, [r2, #548]	; 0x224
    1aac:	f043 0303 	orr.w	r3, r3, #3
    1ab0:	f8c2 3224 	str.w	r3, [r2, #548]	; 0x224
    1ab4:	f8cb 6200 	str.w	r6, [fp, #512]	; 0x200
AONWUCPowerStatusGet(void)
{
    //
    // Return the power status.
    //
    return (HWREG(AON_WUC_BASE + AON_WUC_O_PWRSTAT));
    1ab8:	f502 4270 	add.w	r2, r2, #61440	; 0xf000
    1abc:	6953      	ldr	r3, [r2, #20]
			while (!(AONWUCPowerStatusGet () &
    1abe:	0699      	lsls	r1, r3, #26
    1ac0:	d5fc      	bpl.n	1abc <__pi_release+0x170>
			PRCMPowerDomainOn (__pi_systat.ondmns);
    1ac2:	f04f 5580 	mov.w	r5, #268435456	; 0x10000000
    1ac6:	f8d5 31b8 	ldr.w	r3, [r5, #440]	; 0x1b8
    1aca:	6860      	ldr	r0, [r4, #4]
    1acc:	695b      	ldr	r3, [r3, #20]
    1ace:	4798      	blx	r3
			while (PRCMPowerDomainStatus (__pi_systat.ondmns) !=
    1ad0:	f8d5 31b8 	ldr.w	r3, [r5, #440]	; 0x1b8
    1ad4:	6860      	ldr	r0, [r4, #4]
    1ad6:	6b5b      	ldr	r3, [r3, #52]	; 0x34
    1ad8:	4798      	blx	r3
    1ada:	2801      	cmp	r0, #1
    1adc:	d1f8      	bne.n	1ad0 <__pi_release+0x184>
    HWREGBITW(PRCM_BASE + PRCM_O_VDCTL, PRCM_VDCTL_ULDO_BITN) = ui32Enable;
    1ade:	2200      	movs	r2, #0
    HWREG(PRCM_NONBUF_BASE + PRCM_O_CLKLOADCTL) = PRCM_CLKLOADCTL_LOAD;
    1ae0:	4b2e      	ldr	r3, [pc, #184]	; (1b9c <__pi_release+0x250>)
    1ae2:	6298      	str	r0, [r3, #40]	; 0x28
    HWREGBITW(PRCM_BASE + PRCM_O_VDCTL, PRCM_VDCTL_ULDO_BITN) = ui32Enable;
    1ae4:	4b2e      	ldr	r3, [pc, #184]	; (1ba0 <__pi_release+0x254>)
    1ae6:	f8c3 2180 	str.w	r2, [r3, #384]	; 0x180
    HWREG(AON_IOC_BASE + AON_IOC_O_IOCLATCH) = AON_IOC_IOCLATCH_EN;
    1aea:	4b2a      	ldr	r3, [pc, #168]	; (1b94 <__pi_release+0x248>)
    1aec:	60d8      	str	r0, [r3, #12]
    1aee:	f5a3 5300 	sub.w	r3, r3, #8192	; 0x2000
    1af2:	6adb      	ldr	r3, [r3, #44]	; 0x2c
			SysCtrlAdjustRechargeAfterPowerDown ();
    1af4:	f003 f8c8 	bl	4c88 <NOROM_SysCtrlAdjustRechargeAfterPowerDown>
			reinit_uart ();
    1af8:	f7ff fcae 	bl	1458 <reinit_uart>
    1afc:	4a2a      	ldr	r2, [pc, #168]	; (1ba8 <__pi_release+0x25c>)
    1afe:	6b93      	ldr	r3, [r2, #56]	; 0x38
    1b00:	f043 0370 	orr.w	r3, r3, #112	; 0x70
    1b04:	6393      	str	r3, [r2, #56]	; 0x38
}
    1b06:	e755      	b.n	19b4 <__pi_release+0x68>
			AUXWUCPowerCtrl (AUX_WUC_POWER_OFF);
    1b08:	f04f 5380 	mov.w	r3, #268435456	; 0x10000000
    1b0c:	f8d3 31a0 	ldr.w	r3, [r3, #416]	; 0x1a0
    1b10:	2001      	movs	r0, #1
    1b12:	68db      	ldr	r3, [r3, #12]
    1b14:	4798      	blx	r3
			HWREG (AON_EVENT_BASE + AON_EVENT_O_MCUWUSEL) =
    1b16:	f04f 313f 	mov.w	r1, #1061109567	; 0x3f3f3f3f
			HWREG (AON_WUC_BASE + AON_WUC_O_AUXCTL) &=
    1b1a:	4b24      	ldr	r3, [pc, #144]	; (1bac <__pi_release+0x260>)
    1b1c:	691a      	ldr	r2, [r3, #16]
    1b1e:	f022 0201 	bic.w	r2, r2, #1
    1b22:	611a      	str	r2, [r3, #16]
			HWREG (AON_WUC_BASE + AON_WUC_O_JTAGCFG) &=
    1b24:	6c1a      	ldr	r2, [r3, #64]	; 0x40
    1b26:	f422 7280 	bic.w	r2, r2, #256	; 0x100
    1b2a:	641a      	str	r2, [r3, #64]	; 0x40
			HWREG (AON_EVENT_BASE + AON_EVENT_O_MCUWUSEL) =
    1b2c:	4a20      	ldr	r2, [pc, #128]	; (1bb0 <__pi_release+0x264>)
    1b2e:	6011      	str	r1, [r2, #0]
			HWREG (AON_EVENT_BASE + AON_EVENT_O_AUXWUSEL) =
    1b30:	6051      	str	r1, [r2, #4]
    1b32:	f5a2 5280 	sub.w	r2, r2, #4096	; 0x1000
    1b36:	6ad1      	ldr	r1, [r2, #44]	; 0x2c
    // Ensure the JTAG domain is turned off;
    // otherwise MCU domain can't be turned off.
    HWREG(AON_WUC_BASE + AON_WUC_O_JTAGCFG) = 0;

    // Enable shutdown of the device.
    HWREGBITW(AON_WUC_BASE + AON_WUC_O_CTL0, AON_WUC_CTL0_PWR_DWN_DIS_BITN) = 0;
    1b38:	4917      	ldr	r1, [pc, #92]	; (1b98 <__pi_release+0x24c>)
    HWREG(AON_WUC_BASE + AON_WUC_O_JTAGCFG) = 0;
    1b3a:	641d      	str	r5, [r3, #64]	; 0x40
    HWREGBITW(AON_WUC_BASE + AON_WUC_O_CTL0, AON_WUC_CTL0_PWR_DWN_DIS_BITN) = 0;
    1b3c:	f8c1 5420 	str.w	r5, [r1, #1056]	; 0x420
    HWREG(AON_WUC_BASE + AON_WUC_O_SHUTDOWN) = AON_WUC_SHUTDOWN_EN;
    1b40:	2101      	movs	r1, #1
    1b42:	6199      	str	r1, [r3, #24]
    1b44:	6ad2      	ldr	r2, [r2, #44]	; 0x2c
    return (HWREG(AON_WUC_BASE + AON_WUC_O_PWRSTAT));
    1b46:	695a      	ldr	r2, [r3, #20]
			while (AONWUCPowerStatusGet () & AONWUC_AUX_POWER_ON);
    1b48:	0692      	lsls	r2, r2, #26
    1b4a:	d4fc      	bmi.n	1b46 <__pi_release+0x1fa>
    HWREGBITW(PRCM_BASE + PRCM_O_VDCTL, PRCM_VDCTL_MCU_VD_BITN) = 1;
    1b4c:	2201      	movs	r2, #1
    1b4e:	4b14      	ldr	r3, [pc, #80]	; (1ba0 <__pi_release+0x254>)
			PRCMPowerDomainOff (
    1b50:	2037      	movs	r0, #55	; 0x37
    1b52:	f8c3 2188 	str.w	r2, [r3, #392]	; 0x188
    1b56:	f04f 5380 	mov.w	r3, #268435456	; 0x10000000
    1b5a:	f8d3 31b8 	ldr.w	r3, [r3, #440]	; 0x1b8
    1b5e:	699b      	ldr	r3, [r3, #24]
    1b60:	4798      	blx	r3
			goto DeepSleep;
    1b62:	e74f      	b.n	1a04 <__pi_release+0xb8>
	__SLEEP;
    1b64:	7823      	ldrb	r3, [r4, #0]
    1b66:	f36f 0341 	bfc	r3, #1, #1
    1b6a:	7023      	strb	r3, [r4, #0]
    1b6c:	b662      	cpsie	i

#endif	/* SPIN_WHEN_HALTED */

	goto Redo;
    1b6e:	e6fc      	b.n	196a <__pi_release+0x1e>
    1b70:	20005000 	andcs	r5, r0, r0
    1b74:	a778b779 			; <UNDEFINED> instruction: 0xa778b779
    1b78:	20000654 	andcs	r0, r0, r4, asr r6
    1b7c:	20000650 	andcs	r0, r0, r0, asr r6
    1b80:	20000660 	andcs	r0, r0, r0, ror #12
    1b84:	20000648 	andcs	r0, r0, r8, asr #12
    1b88:	000052d1 	ldrdeq	r5, [r0], -r1
    1b8c:	40082000 	andmi	r2, r8, r0
    1b90:	40092000 	andmi	r2, r9, r0
    1b94:	40094000 	andmi	r4, r9, r0
    1b98:	43220000 			; <UNDEFINED> instruction: 0x43220000
    1b9c:	60082000 	andvs	r2, r8, r0
    1ba0:	43040000 	movwmi	r0, #16384	; 0x4000
    1ba4:	40034000 	andmi	r4, r3, r0
    1ba8:	40001000 	andmi	r1, r0, r0
    1bac:	40091000 	andmi	r1, r9, r0
    1bb0:	40093000 	andmi	r3, r9, r0

00001bb4 <halt>:
	cli_tim;
    1bb4:	2400      	movs	r4, #0
void halt (void) {
    1bb6:	b508      	push	{r3, lr}
	cli_tim;
    1bb8:	4b08      	ldr	r3, [pc, #32]	; (1bdc <halt+0x28>)
	diag ("PicOS halted");
    1bba:	4809      	ldr	r0, [pc, #36]	; (1be0 <halt+0x2c>)
	cli_tim;
    1bbc:	f8c3 4280 	str.w	r4, [r3, #640]	; 0x280
	diag ("PicOS halted");
    1bc0:	f000 fb1c 	bl	21fc <diag>
	mdelay (500);
    1bc4:	f44f 70fa 	mov.w	r0, #500	; 0x1f4
    1bc8:	f7ff faae 	bl	1128 <mdelay>
	setpowermode (2);
    1bcc:	2002      	movs	r0, #2
    1bce:	f7ff feab 	bl	1928 <setpowermode>
	__PCB = NULL;
    1bd2:	4b04      	ldr	r3, [pc, #16]	; (1be4 <halt+0x30>)
    1bd4:	601c      	str	r4, [r3, #0]
	release;
    1bd6:	f7ff feb9 	bl	194c <__pi_release>
    1bda:	bf00      	nop
    1bdc:	43240000 			; <UNDEFINED> instruction: 0x43240000
    1be0:	000052d4 	ldrdeq	r5, [r0], -r4
    1be4:	20000650 	andcs	r0, r0, r0, asr r6

00001be8 <main>:

#include "scheduler.h"

}

int main (void) {
    1be8:	b510      	push	{r4, lr}
    1bea:	4b13      	ldr	r3, [pc, #76]	; (1c38 <main+0x50>)

#if	STACK_GUARD
	{
		register sint i;
		for (i = 0; i < (STACK_SIZE / sizeof (lword)) - 16; i++)
			*((((lword*)STACK_END) - 1) + i) = STACK_SENTINEL;
    1bec:	4913      	ldr	r1, [pc, #76]	; (1c3c <main+0x54>)
		for (i = 0; i < (STACK_SIZE / sizeof (lword)) - 16; i++)
    1bee:	4a14      	ldr	r2, [pc, #80]	; (1c40 <main+0x58>)
			*((((lword*)STACK_END) - 1) + i) = STACK_SENTINEL;
    1bf0:	f843 1b04 	str.w	r1, [r3], #4
		for (i = 0; i < (STACK_SIZE / sizeof (lword)) - 16; i++)
    1bf4:	4293      	cmp	r3, r2
    1bf6:	d1fb      	bne.n	1bf0 <main+0x8>
#if	TCV_PRESENT
	tcv_init ();
#endif

	// For standby mode wakeup on timer
	AONEventMcuWakeUpSet (AON_EVENT_MCU_EVENT0, AON_EVENT_RTC_COMB_DLY);
    1bf8:	f04f 5480 	mov.w	r4, #268435456	; 0x10000000
	system_init ();
    1bfc:	f7ff fdb8 	bl	1770 <system_init>
	tcv_init ();
    1c00:	f000 fece 	bl	29a0 <tcv_init>
	AONEventMcuWakeUpSet (AON_EVENT_MCU_EVENT0, AON_EVENT_RTC_COMB_DLY);
    1c04:	f8d4 3184 	ldr.w	r3, [r4, #388]	; 0x184
    1c08:	2129      	movs	r1, #41	; 0x29
    1c0a:	2000      	movs	r0, #0
    1c0c:	681b      	ldr	r3, [r3, #0]
    1c0e:	4798      	blx	r3
	// Edge on any I/O, will it take care of UART? No, of course not!
	// But it does work for buttons.
	AONEventMcuWakeUpSet (AON_EVENT_MCU_EVENT1, AON_EVENT_IO);
    1c10:	f8d4 3184 	ldr.w	r3, [r4, #388]	; 0x184
    1c14:	2120      	movs	r1, #32
    1c16:	681b      	ldr	r3, [r3, #0]
    1c18:	2001      	movs	r0, #1
    1c1a:	4798      	blx	r3

	// Assume root process identity
	__pi_curr = (__pi_pcb_t*) fork (root, 0);
    1c1c:	2100      	movs	r1, #0
    1c1e:	4809      	ldr	r0, [pc, #36]	; (1c44 <main+0x5c>)
    1c20:	f000 fac6 	bl	21b0 <__pi_fork>
    1c24:	4b08      	ldr	r3, [pc, #32]	; (1c48 <main+0x60>)
	// Delay root startup for 16 msec to make sure that the drivers go
	// first
	delay (16, 0);
    1c26:	2100      	movs	r1, #0
	__pi_curr = (__pi_pcb_t*) fork (root, 0);
    1c28:	6018      	str	r0, [r3, #0]
	delay (16, 0);
    1c2a:	2010      	movs	r0, #16
    1c2c:	f000 f94e 	bl	1ecc <delay>
    1c30:	b662      	cpsie	i

	sti;

	__pi_release ();
    1c32:	f7ff fe8b 	bl	194c <__pi_release>
    1c36:	bf00      	nop
    1c38:	20004bfc 	strdcs	r4, [r0], -ip
    1c3c:	a778b779 			; <UNDEFINED> instruction: 0xa778b779
    1c40:	20004fbc 			; <UNDEFINED> instruction: 0x20004fbc
    1c44:	00000da1 	andeq	r0, r0, r1, lsr #27
    1c48:	20000654 	andcs	r0, r0, r4, asr r6

00001c4c <killev>:
	}

	return i->Timer - __pi_old;
}

static void killev (__pi_pcb_t *pid) {
    1c4c:	b570      	push	{r4, r5, r6, lr}
	aword wfun;
	int j;
	__pi_pcb_t *i;

	wfun = (aword)(pid->code);
	for_all_tasks (i) {
    1c4e:	4b0d      	ldr	r3, [pc, #52]	; (1c84 <killev+0x38>)
	wfun = (aword)(pid->code);
    1c50:	6846      	ldr	r6, [r0, #4]
	for_all_tasks (i) {
    1c52:	681a      	ldr	r2, [r3, #0]
    1c54:	b1aa      	cbz	r2, 1c82 <killev+0x36>
		for (j = 0; j < nevents (i); j++) {
    1c56:	4614      	mov	r4, r2
    1c58:	f834 1b10 	ldrh.w	r1, [r4], #16
    1c5c:	2300      	movs	r3, #0
    1c5e:	f001 0107 	and.w	r1, r1, #7
    1c62:	e001      	b.n	1c68 <killev+0x1c>
			if (i->Events [j] . Event == (aword)pid
			    || i->Events [j] . Event == wfun
    1c64:	42b5      	cmp	r5, r6
    1c66:	d006      	beq.n	1c76 <killev+0x2a>
		for (j = 0; j < nevents (i); j++) {
    1c68:	4299      	cmp	r1, r3
    1c6a:	dd08      	ble.n	1c7e <killev+0x32>
			if (i->Events [j] . Event == (aword)pid
    1c6c:	f854 5033 	ldr.w	r5, [r4, r3, lsl #3]
    1c70:	3301      	adds	r3, #1
    1c72:	42a8      	cmp	r0, r5
    1c74:	d1f6      	bne.n	1c64 <killev+0x18>
			    ) {
				wakeupev (i, j);
    1c76:	eb02 03c3 	add.w	r3, r2, r3, lsl #3
    1c7a:	889b      	ldrh	r3, [r3, #4]
    1c7c:	8013      	strh	r3, [r2, #0]
	for_all_tasks (i) {
    1c7e:	6ad2      	ldr	r2, [r2, #44]	; 0x2c
    1c80:	e7e8      	b.n	1c54 <killev+0x8>
				break;
			}
		}
	}
}
    1c82:	bd70      	pop	{r4, r5, r6, pc}
    1c84:	20000650 	andcs	r0, r0, r0, asr r6

00001c88 <qfree>:
	// volatile
#endif
	aword *chunk, *cc;

	cc = (aword*)(mpools + MA_NP);
	for (chunk = mpools [MA_NP]; chunk != NULL; chunk = m_nextp (chunk)) {
    1c88:	4a1d      	ldr	r2, [pc, #116]	; (1d00 <qfree+0x78>)
static void qfree (aword *ch) {
    1c8a:	b530      	push	{r4, r5, lr}
    1c8c:	4614      	mov	r4, r2
	for (chunk = mpools [MA_NP]; chunk != NULL; chunk = m_nextp (chunk)) {
    1c8e:	6813      	ldr	r3, [r2, #0]
    1c90:	b93b      	cbnz	r3, 1ca2 <qfree+0x1a>
		}
	}

	/* Insert */
	cc = (aword*)(mpools + MA_NP);
	for (chunk = mpools [MA_NP]; chunk != NULL; cc = chunk,
    1c92:	6823      	ldr	r3, [r4, #0]
	cc = (aword*)(mpools + MA_NP);
    1c94:	4a1a      	ldr	r2, [pc, #104]	; (1d00 <qfree+0x78>)
	for (chunk = mpools [MA_NP]; chunk != NULL; cc = chunk,
    1c96:	bb53      	cbnz	r3, 1cee <qfree+0x66>
		chunk = m_nextp (chunk))
			if (m_size (chunk) >= m_size (ch))
				break;

	m_setnextp (ch, chunk);
    1c98:	6003      	str	r3, [r0, #0]
	m_setnextp (cc, ch);

#if	MALLOC_SAFE
	m_magic (ch) = MALLOC_MAGIC;
    1c9a:	4b1a      	ldr	r3, [pc, #104]	; (1d04 <qfree+0x7c>)
	m_setnextp (cc, ch);
    1c9c:	6010      	str	r0, [r2, #0]
	m_magic (ch) = MALLOC_MAGIC;
    1c9e:	6043      	str	r3, [r0, #4]
#endif

#undef	MA_NP
}
    1ca0:	bd30      	pop	{r4, r5, pc}
		if (chunk + m_size (chunk) + m_hdrlen == ch) {
    1ca2:	e953 1501 	ldrd	r1, r5, [r3, #-4]
    1ca6:	3101      	adds	r1, #1
    1ca8:	eb03 0181 	add.w	r1, r3, r1, lsl #2
    1cac:	4288      	cmp	r0, r1
    1cae:	d10b      	bne.n	1cc8 <qfree+0x40>
			m_setnextp (cc, m_nextp (chunk));
    1cb0:	6015      	str	r5, [r2, #0]
			m_size (chunk) += m_hdrlen + m_size (ch);
    1cb2:	f850 0c04 	ldr.w	r0, [r0, #-4]
    1cb6:	f853 1c04 	ldr.w	r1, [r3, #-4]
    1cba:	4401      	add	r1, r0
    1cbc:	4618      	mov	r0, r3
    1cbe:	3101      	adds	r1, #1
    1cc0:	f843 1c04 	str.w	r1, [r3, #-4]
	for (chunk = mpools [MA_NP]; chunk != NULL; chunk = m_nextp (chunk)) {
    1cc4:	681b      	ldr	r3, [r3, #0]
    1cc6:	e7e3      	b.n	1c90 <qfree+0x8>
		} else if (ch + m_size (ch) + m_hdrlen == chunk) {
    1cc8:	f850 1c04 	ldr.w	r1, [r0, #-4]
    1ccc:	3101      	adds	r1, #1
    1cce:	eb00 0181 	add.w	r1, r0, r1, lsl #2
    1cd2:	428b      	cmp	r3, r1
			m_setnextp (cc, m_nextp (chunk));
    1cd4:	bf03      	ittte	eq
    1cd6:	6015      	streq	r5, [r2, #0]
			m_size (ch) += m_hdrlen + m_size (chunk);
    1cd8:	f850 1c04 	ldreq.w	r1, [r0, #-4]
    1cdc:	f853 5c04 	ldreq.w	r5, [r3, #-4]
    1ce0:	461a      	movne	r2, r3
    1ce2:	bf02      	ittt	eq
    1ce4:	1949      	addeq	r1, r1, r5
    1ce6:	3101      	addeq	r1, #1
    1ce8:	f840 1c04 	streq.w	r1, [r0, #-4]
    1cec:	e7ea      	b.n	1cc4 <qfree+0x3c>
			if (m_size (chunk) >= m_size (ch))
    1cee:	f853 4c04 	ldr.w	r4, [r3, #-4]
    1cf2:	f850 1c04 	ldr.w	r1, [r0, #-4]
    1cf6:	428c      	cmp	r4, r1
    1cf8:	d2ce      	bcs.n	1c98 <qfree+0x10>
		chunk = m_nextp (chunk))
    1cfa:	461a      	mov	r2, r3
    1cfc:	681b      	ldr	r3, [r3, #0]
    1cfe:	e7ca      	b.n	1c96 <qfree+0xe>
    1d00:	2000068c 	andcs	r0, r0, ip, lsl #13
    1d04:	deafdeaf 	cdple	14, 10, cr13, cr15, cr15, {5}

00001d08 <dgout>:
    return((HWREG(ui32Base + UART_O_FR) & UART_FR_BUSY) ?
    1d08:	4b03      	ldr	r3, [pc, #12]	; (1d18 <dgout+0x10>)
    1d0a:	699a      	ldr	r2, [r3, #24]

#if	dbg_level != 0 || DIAG_MESSAGES

static void dgout (word c) {

	diag_wait (a);
    1d0c:	0712      	lsls	r2, r2, #28
    1d0e:	d4fc      	bmi.n	1d0a <dgout+0x2>
	diag_wchar (c, a);
    1d10:	b2c0      	uxtb	r0, r0
    1d12:	6018      	str	r0, [r3, #0]
}
    1d14:	4770      	bx	lr
    1d16:	bf00      	nop
    1d18:	40001000 	andmi	r1, r0, r0

00001d1c <__pi_badstate>:
	syserror (ESTATE, "state");
    1d1c:	2007      	movs	r0, #7
void __pi_badstate (void) {
    1d1e:	b508      	push	{r3, lr}
	syserror (ESTATE, "state");
    1d20:	4901      	ldr	r1, [pc, #4]	; (1d28 <__pi_badstate+0xc>)
    1d22:	f7ff fa59 	bl	11d8 <__pi_syserror>
    1d26:	bf00      	nop
    1d28:	00005328 	andeq	r5, r0, r8, lsr #6

00001d2c <utimer_add>:
	for (i = 0; i < MAX_UTIMERS; i++)
    1d2c:	4a08      	ldr	r2, [pc, #32]	; (1d50 <utimer_add+0x24>)
void utimer_add (address ut) {
    1d2e:	4603      	mov	r3, r0
    1d30:	4611      	mov	r1, r2
	for (i = 0; i < MAX_UTIMERS; i++)
    1d32:	2000      	movs	r0, #0
void utimer_add (address ut) {
    1d34:	b510      	push	{r4, lr}
		if (__pi_utims [i] == NULL)
    1d36:	f852 4b04 	ldr.w	r4, [r2], #4
    1d3a:	b12c      	cbz	r4, 1d48 <utimer_add+0x1c>
	for (i = 0; i < MAX_UTIMERS; i++)
    1d3c:	3001      	adds	r0, #1
    1d3e:	2804      	cmp	r0, #4
    1d40:	d1f9      	bne.n	1d36 <utimer_add+0xa>
		syserror (ERESOURCE, "ut a");
    1d42:	4904      	ldr	r1, [pc, #16]	; (1d54 <utimer_add+0x28>)
    1d44:	f7ff fa48 	bl	11d8 <__pi_syserror>
	__pi_utims [i] = ut;
    1d48:	f841 3020 	str.w	r3, [r1, r0, lsl #2]
}
    1d4c:	bd10      	pop	{r4, pc}
    1d4e:	bf00      	nop
    1d50:	20000668 	andcs	r0, r0, r8, ror #12
    1d54:	0000532e 	andeq	r5, r0, lr, lsr #6

00001d58 <__pi_utimer_set>:
	*t = v;
    1d58:	8001      	strh	r1, [r0, #0]
	TCI_RUN_AUXILIARY_TIMER;
    1d5a:	f7ff ba89 	b.w	1270 <tci_run_auxiliary_timer>
	...

00001d60 <update_n_wake>:
void update_n_wake (word min, Boolean force) {
    1d60:	b5f8      	push	{r3, r4, r5, r6, r7, lr}
    1d62:	4604      	mov	r4, r0
	if (TCI_UPDATE_DELAY_TICKS (force))
    1d64:	4608      	mov	r0, r1
    1d66:	f7ff fb25 	bl	13b4 <tci_update_delay_ticks>
    1d6a:	2800      	cmp	r0, #0
    1d6c:	d154      	bne.n	1e18 <update_n_wake+0xb8>
	if (twakecnd (__pi_old, znew, __pi_mintk)) {
    1d6e:	4b2b      	ldr	r3, [pc, #172]	; (1e1c <update_n_wake+0xbc>)
    1d70:	4e2b      	ldr	r6, [pc, #172]	; (1e20 <update_n_wake+0xc0>)
    1d72:	8819      	ldrh	r1, [r3, #0]
    1d74:	8832      	ldrh	r2, [r6, #0]
    1d76:	b289      	uxth	r1, r1
    1d78:	428a      	cmp	r2, r1
    1d7a:	492a      	ldr	r1, [pc, #168]	; (1e24 <update_n_wake+0xc4>)
    1d7c:	d803      	bhi.n	1d86 <update_n_wake+0x26>
    1d7e:	8808      	ldrh	r0, [r1, #0]
    1d80:	b280      	uxth	r0, r0
    1d82:	4282      	cmp	r2, r0
    1d84:	d20d      	bcs.n	1da2 <update_n_wake+0x42>
    1d86:	881d      	ldrh	r5, [r3, #0]
    1d88:	8808      	ldrh	r0, [r1, #0]
    1d8a:	b2ad      	uxth	r5, r5
    1d8c:	b280      	uxth	r0, r0
    1d8e:	4285      	cmp	r5, r0
    1d90:	d236      	bcs.n	1e00 <update_n_wake+0xa0>
    1d92:	8818      	ldrh	r0, [r3, #0]
    1d94:	b280      	uxth	r0, r0
    1d96:	4282      	cmp	r2, r0
    1d98:	d903      	bls.n	1da2 <update_n_wake+0x42>
    1d9a:	8808      	ldrh	r0, [r1, #0]
    1d9c:	b280      	uxth	r0, r0
    1d9e:	4282      	cmp	r2, r0
    1da0:	d32e      	bcc.n	1e00 <update_n_wake+0xa0>
		for_all_tasks (i) {
    1da2:	4a21      	ldr	r2, [pc, #132]	; (1e28 <update_n_wake+0xc8>)
    1da4:	6810      	ldr	r0, [r2, #0]
    1da6:	b918      	cbnz	r0, 1db0 <update_n_wake+0x50>
	__pi_mintk = znew + min;
    1da8:	8818      	ldrh	r0, [r3, #0]
    1daa:	4404      	add	r4, r0
    1dac:	8034      	strh	r4, [r6, #0]
    1dae:	e02c      	b.n	1e0a <update_n_wake+0xaa>
			if (!twaiting (i))
    1db0:	8805      	ldrh	r5, [r0, #0]
    1db2:	072a      	lsls	r2, r5, #28
    1db4:	d51b      	bpl.n	1dee <update_n_wake+0x8e>
			if (twakecnd (__pi_old, znew, i->Timer)) {
    1db6:	881f      	ldrh	r7, [r3, #0]
    1db8:	8842      	ldrh	r2, [r0, #2]
    1dba:	b2bf      	uxth	r7, r7
    1dbc:	42ba      	cmp	r2, r7
    1dbe:	d803      	bhi.n	1dc8 <update_n_wake+0x68>
    1dc0:	880f      	ldrh	r7, [r1, #0]
    1dc2:	b2bf      	uxth	r7, r7
    1dc4:	42ba      	cmp	r2, r7
    1dc6:	d20f      	bcs.n	1de8 <update_n_wake+0x88>
    1dc8:	f8b3 c000 	ldrh.w	ip, [r3]
    1dcc:	880f      	ldrh	r7, [r1, #0]
    1dce:	fa1f fc8c 	uxth.w	ip, ip
    1dd2:	b2bf      	uxth	r7, r7
    1dd4:	45bc      	cmp	ip, r7
    1dd6:	d20c      	bcs.n	1df2 <update_n_wake+0x92>
    1dd8:	881f      	ldrh	r7, [r3, #0]
    1dda:	b2bf      	uxth	r7, r7
    1ddc:	42ba      	cmp	r2, r7
    1dde:	d903      	bls.n	1de8 <update_n_wake+0x88>
    1de0:	880f      	ldrh	r7, [r1, #0]
    1de2:	b2bf      	uxth	r7, r7
    1de4:	42ba      	cmp	r2, r7
    1de6:	d304      	bcc.n	1df2 <update_n_wake+0x92>
				wakeuptm (i);
    1de8:	f025 050f 	bic.w	r5, r5, #15
    1dec:	8005      	strh	r5, [r0, #0]
		for_all_tasks (i) {
    1dee:	6ac0      	ldr	r0, [r0, #44]	; 0x2c
    1df0:	e7d9      	b.n	1da6 <update_n_wake+0x46>
				d = i->Timer - znew;
    1df2:	881d      	ldrh	r5, [r3, #0]
    1df4:	1b52      	subs	r2, r2, r5
    1df6:	b292      	uxth	r2, r2
    1df8:	4294      	cmp	r4, r2
    1dfa:	bf28      	it	cs
    1dfc:	4614      	movcs	r4, r2
    1dfe:	e7f6      	b.n	1dee <update_n_wake+0x8e>
		if ((word)(__pi_mintk - znew) < min) 
    1e00:	8818      	ldrh	r0, [r3, #0]
    1e02:	1a12      	subs	r2, r2, r0
    1e04:	b292      	uxth	r2, r2
    1e06:	4294      	cmp	r4, r2
    1e08:	d9ce      	bls.n	1da8 <update_n_wake+0x48>
	__pi_old = znew;
    1e0a:	881b      	ldrh	r3, [r3, #0]
    1e0c:	b29b      	uxth	r3, r3
    1e0e:	800b      	strh	r3, [r1, #0]
}
    1e10:	e8bd 40f8 	ldmia.w	sp!, {r3, r4, r5, r6, r7, lr}
	TCI_RUN_DELAY_TIMER;
    1e14:	f7ff ba0a 	b.w	122c <tci_run_delay_timer>
}
    1e18:	bdf8      	pop	{r3, r4, r5, r6, r7, pc}
    1e1a:	bf00      	nop
    1e1c:	2000065a 	andcs	r0, r0, sl, asr r6
    1e20:	20000658 	andcs	r0, r0, r8, asr r6
    1e24:	2000065c 	andcs	r0, r0, ip, asr r6
    1e28:	20000650 	andcs	r0, r0, r0, asr r6

00001e2c <proceed>:
void proceed (word state) {
    1e2c:	b508      	push	{r3, lr}
	prcdstate (__pi_curr, state);
    1e2e:	4b03      	ldr	r3, [pc, #12]	; (1e3c <proceed+0x10>)
    1e30:	0100      	lsls	r0, r0, #4
    1e32:	681b      	ldr	r3, [r3, #0]
    1e34:	8018      	strh	r0, [r3, #0]
	release;
    1e36:	f7ff fd89 	bl	194c <__pi_release>
    1e3a:	bf00      	nop
    1e3c:	20000654 	andcs	r0, r0, r4, asr r6

00001e40 <__pi_wait>:
void __pi_wait (aword event, word state) {
    1e40:	b510      	push	{r4, lr}
	sint j = nevents (__pi_curr);
    1e42:	4b0a      	ldr	r3, [pc, #40]	; (1e6c <__pi_wait+0x2c>)
    1e44:	681c      	ldr	r4, [r3, #0]
    1e46:	8823      	ldrh	r3, [r4, #0]
	if (j >= MAX_EVENTS_PER_TASK)
    1e48:	f013 0f04 	tst.w	r3, #4
    1e4c:	f003 0207 	and.w	r2, r3, #7
    1e50:	d003      	beq.n	1e5a <__pi_wait+0x1a>
		syserror (ENEVENTS, "sw");
    1e52:	2005      	movs	r0, #5
    1e54:	4906      	ldr	r1, [pc, #24]	; (1e70 <__pi_wait+0x30>)
    1e56:	f7ff f9bf 	bl	11d8 <__pi_syserror>
	setestate (__pi_curr->Events [j], state, event);
    1e5a:	eb04 02c2 	add.w	r2, r4, r2, lsl #3
    1e5e:	0109      	lsls	r1, r1, #4
	incwait (__pi_curr);
    1e60:	3301      	adds	r3, #1
	setestate (__pi_curr->Events [j], state, event);
    1e62:	8191      	strh	r1, [r2, #12]
    1e64:	6110      	str	r0, [r2, #16]
	incwait (__pi_curr);
    1e66:	8023      	strh	r3, [r4, #0]
}
    1e68:	bd10      	pop	{r4, pc}
    1e6a:	bf00      	nop
    1e6c:	20000654 	andcs	r0, r0, r4, asr r6
    1e70:	00005333 	andeq	r5, r0, r3, lsr r3

00001e74 <__pi_trigger>:
void __pi_trigger (aword event) {
    1e74:	b530      	push	{r4, r5, lr}
	for_all_tasks (i) {
    1e76:	4b0b      	ldr	r3, [pc, #44]	; (1ea4 <__pi_trigger+0x30>)
    1e78:	681a      	ldr	r2, [r3, #0]
    1e7a:	b192      	cbz	r2, 1ea2 <__pi_trigger+0x2e>
		for (j = 0; j < nevents (i); j++) {
    1e7c:	4614      	mov	r4, r2
    1e7e:	2300      	movs	r3, #0
    1e80:	f834 1b10 	ldrh.w	r1, [r4], #16
    1e84:	f001 0107 	and.w	r1, r1, #7
    1e88:	4299      	cmp	r1, r3
    1e8a:	dd08      	ble.n	1e9e <__pi_trigger+0x2a>
			if (i->Events [j] . Event == event) {
    1e8c:	f854 5033 	ldr.w	r5, [r4, r3, lsl #3]
    1e90:	3301      	adds	r3, #1
    1e92:	4285      	cmp	r5, r0
    1e94:	d1f8      	bne.n	1e88 <__pi_trigger+0x14>
				wakeupev (i, j);
    1e96:	eb02 03c3 	add.w	r3, r2, r3, lsl #3
    1e9a:	889b      	ldrh	r3, [r3, #4]
    1e9c:	8013      	strh	r3, [r2, #0]
	for_all_tasks (i) {
    1e9e:	6ad2      	ldr	r2, [r2, #44]	; 0x2c
    1ea0:	e7eb      	b.n	1e7a <__pi_trigger+0x6>
}
    1ea2:	bd30      	pop	{r4, r5, pc}
    1ea4:	20000650 	andcs	r0, r0, r0, asr r6

00001ea8 <__pi_join>:
aword __pi_join (aword pid, word st) {
    1ea8:	b510      	push	{r4, lr}
    1eaa:	4604      	mov	r4, r0
	for_all_tasks (i) {
    1eac:	4b06      	ldr	r3, [pc, #24]	; (1ec8 <__pi_join+0x20>)
    1eae:	681b      	ldr	r3, [r3, #0]
    1eb0:	b90b      	cbnz	r3, 1eb6 <__pi_join+0xe>
	return 0;
    1eb2:	461c      	mov	r4, r3
    1eb4:	e004      	b.n	1ec0 <__pi_join+0x18>
		if ((aword)i == pid) {
    1eb6:	42a3      	cmp	r3, r4
    1eb8:	d104      	bne.n	1ec4 <__pi_join+0x1c>
			__pi_wait (pid, st);
    1eba:	4620      	mov	r0, r4
    1ebc:	f7ff ffc0 	bl	1e40 <__pi_wait>
}
    1ec0:	4620      	mov	r0, r4
    1ec2:	bd10      	pop	{r4, pc}
	for_all_tasks (i) {
    1ec4:	6adb      	ldr	r3, [r3, #44]	; 0x2c
    1ec6:	e7f3      	b.n	1eb0 <__pi_join+0x8>
    1ec8:	20000650 	andcs	r0, r0, r0, asr r6

00001ecc <delay>:
void delay (word d, word state) {
    1ecc:	b538      	push	{r3, r4, r5, lr}
    1ece:	4604      	mov	r4, r0
	settstate (__pi_curr, state);
    1ed0:	4d0a      	ldr	r5, [pc, #40]	; (1efc <delay+0x30>)
    1ed2:	682a      	ldr	r2, [r5, #0]
    1ed4:	8813      	ldrh	r3, [r2, #0]
    1ed6:	f003 0307 	and.w	r3, r3, #7
    1eda:	ea43 1301 	orr.w	r3, r3, r1, lsl #4
    1ede:	8013      	strh	r3, [r2, #0]
	update_n_wake (d, YES);
    1ee0:	2101      	movs	r1, #1
    1ee2:	f7ff ff3d 	bl	1d60 <update_n_wake>
	__pi_curr->Timer = __pi_old + d;
    1ee6:	4b06      	ldr	r3, [pc, #24]	; (1f00 <delay+0x34>)
    1ee8:	8818      	ldrh	r0, [r3, #0]
    1eea:	682b      	ldr	r3, [r5, #0]
    1eec:	4404      	add	r4, r0
    1eee:	805c      	strh	r4, [r3, #2]
	inctimer (__pi_curr);
    1ef0:	682a      	ldr	r2, [r5, #0]
    1ef2:	8813      	ldrh	r3, [r2, #0]
    1ef4:	f043 0308 	orr.w	r3, r3, #8
    1ef8:	8013      	strh	r3, [r2, #0]
}
    1efa:	bd38      	pop	{r3, r4, r5, pc}
    1efc:	20000654 	andcs	r0, r0, r4, asr r6
    1f00:	2000065c 	andcs	r0, r0, ip, asr r6

00001f04 <running>:
	if (fun == NULL)
    1f04:	4603      	mov	r3, r0
    1f06:	b910      	cbnz	r0, 1f0e <running+0xa>
		return (int) __pi_curr;
    1f08:	4b05      	ldr	r3, [pc, #20]	; (1f20 <running+0x1c>)
    1f0a:	6818      	ldr	r0, [r3, #0]
    1f0c:	4770      	bx	lr
	for_all_tasks (i)
    1f0e:	4a05      	ldr	r2, [pc, #20]	; (1f24 <running+0x20>)
    1f10:	6810      	ldr	r0, [r2, #0]
    1f12:	b900      	cbnz	r0, 1f16 <running+0x12>
}
    1f14:	4770      	bx	lr
		if (i->code == fun)
    1f16:	6842      	ldr	r2, [r0, #4]
    1f18:	429a      	cmp	r2, r3
    1f1a:	d0fb      	beq.n	1f14 <running+0x10>
	for_all_tasks (i)
    1f1c:	6ac0      	ldr	r0, [r0, #44]	; 0x2c
    1f1e:	e7f8      	b.n	1f12 <running+0xe>
    1f20:	20000654 	andcs	r0, r0, r4, asr r6
    1f24:	20000650 	andcs	r0, r0, r0, asr r6

00001f28 <__pi_strlen>:
int __pi_strlen (const char *s) {
    1f28:	4603      	mov	r3, r0
	for (i = 0; *(s+i) != '\0'; i++);
    1f2a:	2000      	movs	r0, #0
    1f2c:	5c1a      	ldrb	r2, [r3, r0]
    1f2e:	b902      	cbnz	r2, 1f32 <__pi_strlen+0xa>
}
    1f30:	4770      	bx	lr
	for (i = 0; *(s+i) != '\0'; i++);
    1f32:	3001      	adds	r0, #1
    1f34:	e7fa      	b.n	1f2c <__pi_strlen+0x4>

00001f36 <__pi_strcpy>:
	while ((Boolean)(*d++ = *s++));
    1f36:	3801      	subs	r0, #1
    1f38:	f811 3b01 	ldrb.w	r3, [r1], #1
    1f3c:	f800 3f01 	strb.w	r3, [r0, #1]!
    1f40:	2b00      	cmp	r3, #0
    1f42:	d1f9      	bne.n	1f38 <__pi_strcpy+0x2>
}
    1f44:	4770      	bx	lr

00001f46 <__pi_memcpy>:
	while (n--)
    1f46:	3801      	subs	r0, #1
    1f48:	440a      	add	r2, r1
    1f4a:	4291      	cmp	r1, r2
    1f4c:	d100      	bne.n	1f50 <__pi_memcpy+0xa>
}
    1f4e:	4770      	bx	lr
		*dest++ = *src++;
    1f50:	f811 3b01 	ldrb.w	r3, [r1], #1
    1f54:	f800 3f01 	strb.w	r3, [r0, #1]!
    1f58:	e7f7      	b.n	1f4a <__pi_memcpy+0x4>

00001f5a <__pi_memset>:
		*dest++ = c;
    1f5a:	f002 bfa5 	b.w	4ea8 <memset>
	...

00001f60 <adddevfunc>:
void adddevfunc (devreqfun_t rf, int loc) {
    1f60:	b508      	push	{r3, lr}
	if (loc < 0 || loc >= MAX_DEVICES)
    1f62:	b119      	cbz	r1, 1f6c <adddevfunc+0xc>
		syserror (EREQPAR, "addv");
    1f64:	2003      	movs	r0, #3
    1f66:	4905      	ldr	r1, [pc, #20]	; (1f7c <adddevfunc+0x1c>)
		syserror (ERESOURCE, "addv");
    1f68:	f7ff f936 	bl	11d8 <__pi_syserror>
	if (ioreq [loc] != NULL)
    1f6c:	4b04      	ldr	r3, [pc, #16]	; (1f80 <adddevfunc+0x20>)
    1f6e:	681a      	ldr	r2, [r3, #0]
    1f70:	b112      	cbz	r2, 1f78 <adddevfunc+0x18>
		syserror (ERESOURCE, "addv");
    1f72:	2004      	movs	r0, #4
    1f74:	4901      	ldr	r1, [pc, #4]	; (1f7c <adddevfunc+0x1c>)
    1f76:	e7f7      	b.n	1f68 <adddevfunc+0x8>
	ioreq [loc] = rf;
    1f78:	6018      	str	r0, [r3, #0]
}
    1f7a:	bd08      	pop	{r3, pc}
    1f7c:	00005336 	andeq	r5, r0, r6, lsr r3
    1f80:	2000067c 	andcs	r0, r0, ip, ror r6

00001f84 <io>:
sint io (word retry, word dev, word operation, char *buf, word len) {
    1f84:	e92d 43f8 	stmdb	sp!, {r3, r4, r5, r6, r7, r8, r9, lr}
    1f88:	4604      	mov	r4, r0
    1f8a:	4616      	mov	r6, r2
    1f8c:	461d      	mov	r5, r3
    1f8e:	f8bd 8020 	ldrh.w	r8, [sp, #32]
	if (dev >= MAX_DEVICES || ioreq [dev] == NULL)
    1f92:	b921      	cbnz	r1, 1f9e <io+0x1a>
    1f94:	f8df 9080 	ldr.w	r9, [pc, #128]	; 2018 <io+0x94>
    1f98:	f8d9 3000 	ldr.w	r3, [r9]
    1f9c:	b91b      	cbnz	r3, 1fa6 <io+0x22>
		syserror (ENODEVICE, "io");
    1f9e:	2001      	movs	r0, #1
    1fa0:	491e      	ldr	r1, [pc, #120]	; (201c <io+0x98>)
    1fa2:	f7ff f919 	bl	11d8 <__pi_syserror>
	if (len == 0)
    1fa6:	f1b8 0f00 	cmp.w	r8, #0
    1faa:	d028      	beq.n	1ffe <io+0x7a>
	ret = (ioreq [dev]) (operation, buf, len);
    1fac:	4642      	mov	r2, r8
    1fae:	4629      	mov	r1, r5
    1fb0:	4630      	mov	r0, r6
    1fb2:	4798      	blx	r3
	if (ret >= 0)
    1fb4:	2800      	cmp	r0, #0
    1fb6:	da23      	bge.n	2000 <io+0x7c>
	if (ret == -1) {
    1fb8:	1c41      	adds	r1, r0, #1
    1fba:	f64f 73ff 	movw	r3, #65535	; 0xffff
    1fbe:	d108      	bne.n	1fd2 <io+0x4e>
		if (retry == WNONE)
    1fc0:	429c      	cmp	r4, r3
    1fc2:	d01c      	beq.n	1ffe <io+0x7a>
		iowait (dev, operation, retry);
    1fc4:	4621      	mov	r1, r4
    1fc6:	f5a6 7081 	sub.w	r0, r6, #258	; 0x102
    1fca:	f7ff ff39 	bl	1e40 <__pi_wait>
			release;
    1fce:	f7ff fcbd 	bl	194c <__pi_release>
	if (ret == -2) {
    1fd2:	1c82      	adds	r2, r0, #2
    1fd4:	d116      	bne.n	2004 <io+0x80>
		if (retry != WNONE) {
    1fd6:	429c      	cmp	r4, r3
			(ioreq [dev]) (NONE, buf, len);
    1fd8:	f8d9 9000 	ldr.w	r9, [r9]
		if (retry != WNONE) {
    1fdc:	d00a      	beq.n	1ff4 <io+0x70>
			iowait (dev, operation, retry);
    1fde:	4621      	mov	r1, r4
    1fe0:	f5a6 7081 	sub.w	r0, r6, #258	; 0x102
    1fe4:	f7ff ff2c 	bl	1e40 <__pi_wait>
			(ioreq [dev]) (NONE, buf, len);
    1fe8:	4642      	mov	r2, r8
    1fea:	4629      	mov	r1, r5
    1fec:	f04f 30ff 	mov.w	r0, #4294967295	; 0xffffffff
    1ff0:	47c8      	blx	r9
    1ff2:	e7ec      	b.n	1fce <io+0x4a>
		(ioreq [dev]) (NONE, buf, len);
    1ff4:	4642      	mov	r2, r8
    1ff6:	4629      	mov	r1, r5
    1ff8:	f04f 30ff 	mov.w	r0, #4294967295	; 0xffffffff
    1ffc:	47c8      	blx	r9
		return 0;
    1ffe:	2000      	movs	r0, #0
}
    2000:	e8bd 83f8 	ldmia.w	sp!, {r3, r4, r5, r6, r7, r8, r9, pc}
	if (retry != WNONE) {
    2004:	429c      	cmp	r4, r3
    2006:	d0fa      	beq.n	1ffe <io+0x7a>
		delay (-ret - 2, retry);
    2008:	f5c0 407f 	rsb	r0, r0, #65280	; 0xff00
    200c:	30fe      	adds	r0, #254	; 0xfe
    200e:	4621      	mov	r1, r4
    2010:	b280      	uxth	r0, r0
    2012:	f7ff ff5b 	bl	1ecc <delay>
		release;
    2016:	e7da      	b.n	1fce <io+0x4a>
    2018:	2000067c 	andcs	r0, r0, ip, ror r6
    201c:	0000533b 	andeq	r5, r0, fp, lsr r3

00002020 <__pi_malloc_init>:
	if ((mlen = (aword)MALLOC_LENGTH) < 256)
    2020:	4a0d      	ldr	r2, [pc, #52]	; (2058 <__pi_malloc_init+0x38>)
void __pi_malloc_init () {
    2022:	b508      	push	{r3, lr}
	if ((mlen = (aword)MALLOC_LENGTH) < 256)
    2024:	f1c2 5300 	rsb	r3, r2, #536870912	; 0x20000000
    2028:	f503 4398 	add.w	r3, r3, #19456	; 0x4c00
    202c:	089b      	lsrs	r3, r3, #2
    202e:	1e59      	subs	r1, r3, #1
    2030:	29ff      	cmp	r1, #255	; 0xff
    2032:	d803      	bhi.n	203c <__pi_malloc_init+0x1c>
		syserror (ERESOURCE, "mal1");
    2034:	2004      	movs	r0, #4
    2036:	4909      	ldr	r1, [pc, #36]	; (205c <__pi_malloc_init+0x3c>)
    2038:	f7ff f8ce 	bl	11d8 <__pi_syserror>
	mpools [0] = ((aword*)MALLOC_START) + m_hdrlen;
    203c:	4908      	ldr	r1, [pc, #32]	; (2060 <__pi_malloc_init+0x40>)
    203e:	1d10      	adds	r0, r2, #4
    2040:	6008      	str	r0, [r1, #0]
	m_magic (mpools [0]) = MALLOC_MAGIC;
    2042:	2000      	movs	r0, #0
    2044:	4907      	ldr	r1, [pc, #28]	; (2064 <__pi_malloc_init+0x44>)
	m_size (mpools [0]) = mlen - m_hdrlen;
    2046:	3b02      	subs	r3, #2
    2048:	6013      	str	r3, [r2, #0]
	m_magic (mpools [0]) = MALLOC_MAGIC;
    204a:	e9c2 0101 	strd	r0, r1, [r2, #4]
	mnfree [0] = mcfree [0] = m_size (mpools [0]);
    204e:	4a06      	ldr	r2, [pc, #24]	; (2068 <__pi_malloc_init+0x48>)
    2050:	6013      	str	r3, [r2, #0]
    2052:	4a06      	ldr	r2, [pc, #24]	; (206c <__pi_malloc_init+0x4c>)
    2054:	6013      	str	r3, [r2, #0]
}
    2056:	bd08      	pop	{r3, pc}
    2058:	20000754 	andcs	r0, r0, r4, asr r7
    205c:	0000533e 	andeq	r5, r0, lr, lsr r3
    2060:	2000068c 	andcs	r0, r0, ip, lsl #13
    2064:	deafdeaf 	cdple	14, 10, cr13, cr15, cr15, {5}
    2068:	20000680 	andcs	r0, r0, r0, lsl #13
    206c:	20000688 	andcs	r0, r0, r8, lsl #13

00002070 <__pi_free>:
void __pi_free (aword *ch) {
    2070:	b508      	push	{r3, lr}
	if (ch == NULL)
    2072:	b1c8      	cbz	r0, 20a8 <__pi_free+0x38>
	if ((m_size (ch) & MALLOC_UMASK) == 0)
    2074:	f850 3c04 	ldr.w	r3, [r0, #-4]
    2078:	2b00      	cmp	r3, #0
    207a:	db03      	blt.n	2084 <__pi_free+0x14>
		syserror (EMALLOC, "malg");
    207c:	2006      	movs	r0, #6
    207e:	490b      	ldr	r1, [pc, #44]	; (20ac <__pi_free+0x3c>)
    2080:	f7ff f8aa 	bl	11d8 <__pi_syserror>
	mcfree [MA_NP] += m_size (ch);
    2084:	490a      	ldr	r1, [pc, #40]	; (20b0 <__pi_free+0x40>)
		m_size (ch) ^= MALLOC_UMASK;
    2086:	f103 4300 	add.w	r3, r3, #2147483648	; 0x80000000
	mcfree [MA_NP] += m_size (ch);
    208a:	680a      	ldr	r2, [r1, #0]
		m_size (ch) ^= MALLOC_UMASK;
    208c:	f840 3c04 	str.w	r3, [r0, #-4]
	mcfree [MA_NP] += m_size (ch);
    2090:	4413      	add	r3, r2
    2092:	600b      	str	r3, [r1, #0]
	QFREE;
    2094:	f7ff fdf8 	bl	1c88 <qfree>
	if (mevent [MA_NP] . nwait) {
    2098:	4806      	ldr	r0, [pc, #24]	; (20b4 <__pi_free+0x44>)
    209a:	7803      	ldrb	r3, [r0, #0]
    209c:	b123      	cbz	r3, 20a8 <__pi_free+0x38>
		trigger ((aword)(&(mevent [MA_NP])));
    209e:	f7ff fee9 	bl	1e74 <__pi_trigger>
		mevent [MA_NP] . nwait --;
    20a2:	7803      	ldrb	r3, [r0, #0]
    20a4:	3b01      	subs	r3, #1
    20a6:	7003      	strb	r3, [r0, #0]
}
    20a8:	bd08      	pop	{r3, pc}
    20aa:	bf00      	nop
    20ac:	00005343 	andeq	r5, r0, r3, asr #6
    20b0:	20000680 	andcs	r0, r0, r0, lsl #13
    20b4:	20000684 	andcs	r0, r0, r4, lsl #13

000020b8 <kill>:
void kill (aword pid) {
    20b8:	b510      	push	{r4, lr}
	if (pid == 0)
    20ba:	b908      	cbnz	r0, 20c0 <kill+0x8>
		pid = (aword) __pi_curr;
    20bc:	4b0f      	ldr	r3, [pc, #60]	; (20fc <kill+0x44>)
    20be:	6818      	ldr	r0, [r3, #0]
	j = NULL;
    20c0:	2300      	movs	r3, #0
	for_all_tasks (i) {
    20c2:	490f      	ldr	r1, [pc, #60]	; (2100 <kill+0x48>)
    20c4:	680c      	ldr	r4, [r1, #0]
    20c6:	b91c      	cbnz	r4, 20d0 <kill+0x18>
	syserror (EREQPAR, "kpi");
    20c8:	2003      	movs	r0, #3
    20ca:	490e      	ldr	r1, [pc, #56]	; (2104 <kill+0x4c>)
    20cc:	f7ff f884 	bl	11d8 <__pi_syserror>
		if ((aword)i == pid) {
    20d0:	4284      	cmp	r4, r0
				__PCB = i->Next;
    20d2:	6ae2      	ldr	r2, [r4, #44]	; 0x2c
		if ((aword)i == pid) {
    20d4:	d10e      	bne.n	20f4 <kill+0x3c>
			if (j == NULL)
    20d6:	b95b      	cbnz	r3, 20f0 <kill+0x38>
				__PCB = i->Next;
    20d8:	600a      	str	r2, [r1, #0]
			killev (i);
    20da:	4620      	mov	r0, r4
    20dc:	f7ff fdb6 	bl	1c4c <killev>
			ufree (i);
    20e0:	f7ff ffc6 	bl	2070 <__pi_free>
			if (i == __pi_curr)
    20e4:	4b05      	ldr	r3, [pc, #20]	; (20fc <kill+0x44>)
    20e6:	681b      	ldr	r3, [r3, #0]
    20e8:	42a3      	cmp	r3, r4
    20ea:	d106      	bne.n	20fa <kill+0x42>
				release;
    20ec:	f7ff fc2e 	bl	194c <__pi_release>
				j->Next = i->Next;
    20f0:	62da      	str	r2, [r3, #44]	; 0x2c
    20f2:	e7f2      	b.n	20da <kill+0x22>
    20f4:	4623      	mov	r3, r4
				__PCB = i->Next;
    20f6:	4614      	mov	r4, r2
    20f8:	e7e5      	b.n	20c6 <kill+0xe>
}
    20fa:	bd10      	pop	{r4, pc}
    20fc:	20000654 	andcs	r0, r0, r4, asr r6
    2100:	20000650 	andcs	r0, r0, r0, asr r6
    2104:	00005348 	andeq	r5, r0, r8, asr #6

00002108 <__pi_malloc>:
	if (size < 8)
    2108:	2807      	cmp	r0, #7
		_size = 2;
    210a:	bf98      	it	ls
    210c:	2002      	movls	r0, #2
aword *__pi_malloc (word size) {
    210e:	b538      	push	{r3, r4, r5, lr}
	for (chunk = mpools [MA_NP]; chunk != NULL; cc = chunk,
    2110:	4b21      	ldr	r3, [pc, #132]	; (2198 <__pi_malloc+0x90>)
		_size = (((aword)size) + 3) >> 2;
    2112:	bf88      	it	hi
    2114:	3003      	addhi	r0, #3
	for (chunk = mpools [MA_NP]; chunk != NULL; cc = chunk,
    2116:	681c      	ldr	r4, [r3, #0]
		if (m_magic (chunk) != MALLOC_MAGIC)
    2118:	4920      	ldr	r1, [pc, #128]	; (219c <__pi_malloc+0x94>)
		_size = (((aword)size) + 3) >> 2;
    211a:	bf88      	it	hi
    211c:	0880      	lsrhi	r0, r0, #2
	for (chunk = mpools [MA_NP]; chunk != NULL; cc = chunk,
    211e:	b94c      	cbnz	r4, 2134 <__pi_malloc+0x2c>
		if (mevent [MA_NP] . nfail != 255)
    2120:	4a1f      	ldr	r2, [pc, #124]	; (21a0 <__pi_malloc+0x98>)
    2122:	7853      	ldrb	r3, [r2, #1]
    2124:	2bff      	cmp	r3, #255	; 0xff
    2126:	d001      	beq.n	212c <__pi_malloc+0x24>
			mevent [MA_NP] . nfail ++;
    2128:	3301      	adds	r3, #1
    212a:	7053      	strb	r3, [r2, #1]
		mnfree [MA_NP] = 0;
    212c:	2200      	movs	r2, #0
    212e:	4b1d      	ldr	r3, [pc, #116]	; (21a4 <__pi_malloc+0x9c>)
    2130:	601a      	str	r2, [r3, #0]
	return chunk;
    2132:	e02f      	b.n	2194 <__pi_malloc+0x8c>
		if (m_magic (chunk) != MALLOC_MAGIC)
    2134:	6862      	ldr	r2, [r4, #4]
    2136:	428a      	cmp	r2, r1
    2138:	d003      	beq.n	2142 <__pi_malloc+0x3a>
			syserror (EMALLOC, "malc");
    213a:	2006      	movs	r0, #6
    213c:	491a      	ldr	r1, [pc, #104]	; (21a8 <__pi_malloc+0xa0>)
    213e:	f7ff f84b 	bl	11d8 <__pi_syserror>
		if (m_size (chunk) >= _size)
    2142:	e954 5201 	ldrd	r5, r2, [r4, #-4]
    2146:	4285      	cmp	r5, r0
    2148:	d202      	bcs.n	2150 <__pi_malloc+0x48>
		chunk = m_nextp (chunk)) {
    214a:	4623      	mov	r3, r4
    214c:	4614      	mov	r4, r2
    214e:	e7e6      	b.n	211e <__pi_malloc+0x16>
		m_setnextp (cc, m_nextp (chunk));
    2150:	601a      	str	r2, [r3, #0]
		if ((waste = m_size (chunk) - _size) > MAX_MALLOC_WASTE) {
    2152:	f854 3c04 	ldr.w	r3, [r4, #-4]
    2156:	1a1b      	subs	r3, r3, r0
    2158:	2b08      	cmp	r3, #8
    215a:	d909      	bls.n	2170 <__pi_malloc+0x68>
			m_size (chunk) = _size;
    215c:	f844 0c04 	str.w	r0, [r4, #-4]
			cc = chunk + _size + m_hdrlen;
    2160:	3001      	adds	r0, #1
    2162:	eb04 0080 	add.w	r0, r4, r0, lsl #2
			m_size (cc) = waste - m_hdrlen;
    2166:	3b01      	subs	r3, #1
    2168:	f840 3c04 	str.w	r3, [r0, #-4]
			QFREE;
    216c:	f7ff fd8c 	bl	1c88 <qfree>
		mevent [MA_NP] . nfail = 0;
    2170:	2200      	movs	r2, #0
    2172:	4b0b      	ldr	r3, [pc, #44]	; (21a0 <__pi_malloc+0x98>)
		mcfree [MA_NP] -= m_size (chunk);
    2174:	490d      	ldr	r1, [pc, #52]	; (21ac <__pi_malloc+0xa4>)
		mevent [MA_NP] . nfail = 0;
    2176:	705a      	strb	r2, [r3, #1]
		mcfree [MA_NP] -= m_size (chunk);
    2178:	f854 2c04 	ldr.w	r2, [r4, #-4]
    217c:	680b      	ldr	r3, [r1, #0]
    217e:	1a9b      	subs	r3, r3, r2
    2180:	600b      	str	r3, [r1, #0]
		if (mnfree [MA_NP] > mcfree [MA_NP])
    2182:	4908      	ldr	r1, [pc, #32]	; (21a4 <__pi_malloc+0x9c>)
		m_size (chunk) |= MALLOC_UMASK;
    2184:	f042 4200 	orr.w	r2, r2, #2147483648	; 0x80000000
		if (mnfree [MA_NP] > mcfree [MA_NP])
    2188:	6808      	ldr	r0, [r1, #0]
		m_size (chunk) |= MALLOC_UMASK;
    218a:	f844 2c04 	str.w	r2, [r4, #-4]
		if (mnfree [MA_NP] > mcfree [MA_NP])
    218e:	4283      	cmp	r3, r0
			mnfree [MA_NP] = mcfree [MA_NP];
    2190:	bf38      	it	cc
    2192:	600b      	strcc	r3, [r1, #0]
}
    2194:	4620      	mov	r0, r4
    2196:	bd38      	pop	{r3, r4, r5, pc}
    2198:	2000068c 	andcs	r0, r0, ip, lsl #13
    219c:	deafdeaf 	cdple	14, 10, cr13, cr15, cr15, {5}
    21a0:	20000684 	andcs	r0, r0, r4, lsl #13
    21a4:	20000688 	andcs	r0, r0, r8, lsl #13
    21a8:	0000534c 	andeq	r5, r0, ip, asr #6
    21ac:	20000680 	andcs	r0, r0, r0, lsl #13

000021b0 <__pi_fork>:
aword __pi_fork (fsmcode func, aword data) {
    21b0:	b538      	push	{r3, r4, r5, lr}
    21b2:	4605      	mov	r5, r0
	if ((i = (__pi_pcb_t*) umalloc (sizeof (__pi_pcb_t))) == NULL)
    21b4:	2030      	movs	r0, #48	; 0x30
aword __pi_fork (fsmcode func, aword data) {
    21b6:	460c      	mov	r4, r1
	if ((i = (__pi_pcb_t*) umalloc (sizeof (__pi_pcb_t))) == NULL)
    21b8:	f7ff ffa6 	bl	2108 <__pi_malloc>
    21bc:	2300      	movs	r3, #0
    21be:	b138      	cbz	r0, 21d0 <__pi_fork+0x20>
		if ((j = __PCB) == NULL)
    21c0:	4a07      	ldr	r2, [pc, #28]	; (21e0 <__pi_fork+0x30>)
	i->Status = 0;
    21c2:	8003      	strh	r3, [r0, #0]
	i->Next = NULL;
    21c4:	62c3      	str	r3, [r0, #44]	; 0x2c
		if ((j = __PCB) == NULL)
    21c6:	6813      	ldr	r3, [r2, #0]
	i->data = data;
    21c8:	e9c0 5401 	strd	r5, r4, [r0, #4]
		if ((j = __PCB) == NULL)
    21cc:	b90b      	cbnz	r3, 21d2 <__pi_fork+0x22>
			__PCB = i;
    21ce:	6010      	str	r0, [r2, #0]
}
    21d0:	bd38      	pop	{r3, r4, r5, pc}
			for (; j->Next != NULL; j = j->Next);
    21d2:	461a      	mov	r2, r3
    21d4:	6adb      	ldr	r3, [r3, #44]	; 0x2c
    21d6:	2b00      	cmp	r3, #0
    21d8:	d1fb      	bne.n	21d2 <__pi_fork+0x22>
			j->Next = i;
    21da:	62d0      	str	r0, [r2, #44]	; 0x2c
	return (aword) i;
    21dc:	e7f8      	b.n	21d0 <__pi_fork+0x20>
    21de:	bf00      	nop
    21e0:	20000650 	andcs	r0, r0, r0, asr r6

000021e4 <__pi_waitmem>:
	if (mevent [MA_NP] . nwait != 255)
    21e4:	4a04      	ldr	r2, [pc, #16]	; (21f8 <__pi_waitmem+0x14>)
void __pi_waitmem (word state) {
    21e6:	4601      	mov	r1, r0
	if (mevent [MA_NP] . nwait != 255)
    21e8:	7813      	ldrb	r3, [r2, #0]
	wait ((aword)(&(mevent [MA_NP])), state);
    21ea:	4803      	ldr	r0, [pc, #12]	; (21f8 <__pi_waitmem+0x14>)
	if (mevent [MA_NP] . nwait != 255)
    21ec:	2bff      	cmp	r3, #255	; 0xff
		mevent [MA_NP] . nwait ++;
    21ee:	bf1c      	itt	ne
    21f0:	3301      	addne	r3, #1
    21f2:	7013      	strbne	r3, [r2, #0]
	wait ((aword)(&(mevent [MA_NP])), state);
    21f4:	f7ff be24 	b.w	1e40 <__pi_wait>
    21f8:	20000684 	andcs	r0, r0, r4, lsl #13

000021fc <diag>:

#endif	/* dbg_level */

#if	DIAG_MESSAGES

void diag (const char *mess, ...) {
    21fc:	b40f      	push	{r0, r1, r2, r3}
    21fe:	e92d 43f7 	stmdb	sp!, {r0, r1, r2, r4, r5, r6, r7, r8, r9, lr}
    2202:	ab0a      	add	r3, sp, #40	; 0x28
    2204:	f853 5b04 	ldr.w	r5, [r3], #4
	sint bc;
	word v;
	byte is;

	va_start (ap, mess);
	diag_disable_int (a, is);
    2208:	2015      	movs	r0, #21
	va_start (ap, mess);
    220a:	9301      	str	r3, [sp, #4]
	diag_disable_int (a, is);
    220c:	f04f 5380 	mov.w	r3, #268435456	; 0x10000000
    2210:	f8d3 31b0 	ldr.w	r3, [r3, #432]	; 0x1b0
				d = (bc == 16) ? 10000 : 1000000000;
				while (1) {
					// Strip initial zeros
					v = (word) (val / d);
					if (v || d == 1) break;
					d /= 10;
    2214:	270a      	movs	r7, #10
	diag_disable_int (a, is);
    2216:	695b      	ldr	r3, [r3, #20]
    2218:	4798      	blx	r3
				d = (bc == 16) ? 10000 : 1000000000;
    221a:	f8df 8118 	ldr.w	r8, [pc, #280]	; 2334 <diag+0x138>
	while (*mess != '\0') {
    221e:	7828      	ldrb	r0, [r5, #0]
    2220:	b9a8      	cbnz	r0, 224e <diag+0x52>
		} else {
			dgout (*mess++);
		}
	}

	dgout ('\r');
    2222:	200d      	movs	r0, #13
    2224:	f7ff fd70 	bl	1d08 <dgout>
	dgout ('\n');
    2228:	200a      	movs	r0, #10
    222a:	f7ff fd6d 	bl	1d08 <dgout>
    222e:	4a42      	ldr	r2, [pc, #264]	; (2338 <diag+0x13c>)
    2230:	6993      	ldr	r3, [r2, #24]
	diag_wait (a);
    2232:	071b      	lsls	r3, r3, #28
    2234:	d4fc      	bmi.n	2230 <diag+0x34>
	diag_enable_int (a, is);
    2236:	f04f 5380 	mov.w	r3, #268435456	; 0x10000000
    223a:	f8d3 31b0 	ldr.w	r3, [r3, #432]	; 0x1b0
    223e:	2015      	movs	r0, #21
    2240:	691b      	ldr	r3, [r3, #16]
    2242:	4798      	blx	r3
}
    2244:	b003      	add	sp, #12
    2246:	e8bd 43f0 	ldmia.w	sp!, {r4, r5, r6, r7, r8, r9, lr}
    224a:	b004      	add	sp, #16
    224c:	4770      	bx	lr
		if (*mess == '%') {
    224e:	2825      	cmp	r0, #37	; 0x25
			mess++;
    2250:	f105 0601 	add.w	r6, r5, #1
		if (*mess == '%') {
    2254:	d16b      	bne.n	232e <diag+0x132>
			if (*mess == 'l') {
    2256:	786b      	ldrb	r3, [r5, #1]
    2258:	2b6c      	cmp	r3, #108	; 0x6c
    225a:	9b01      	ldr	r3, [sp, #4]
				mess++;
    225c:	bf08      	it	eq
    225e:	1cae      	addeq	r6, r5, #2
    2260:	f853 1b04 	ldr.w	r1, [r3], #4
				bc = 32;
    2264:	bf08      	it	eq
    2266:	2520      	moveq	r5, #32
				val = va_arg (ap, lword);
    2268:	9301      	str	r3, [sp, #4]
			switch (*mess) {
    226a:	7833      	ldrb	r3, [r6, #0]
				bc = 16;
    226c:	bf18      	it	ne
    226e:	2510      	movne	r5, #16
			switch (*mess) {
    2270:	2b75      	cmp	r3, #117	; 0x75
				val = va_arg (ap, lword);
    2272:	460c      	mov	r4, r1
			switch (*mess) {
    2274:	d04e      	beq.n	2314 <diag+0x118>
    2276:	d80a      	bhi.n	228e <diag+0x92>
    2278:	2b64      	cmp	r3, #100	; 0x64
    227a:	d01c      	beq.n	22b6 <diag+0xba>
    227c:	2b73      	cmp	r3, #115	; 0x73
    227e:	d052      	beq.n	2326 <diag+0x12a>
				dgout ('%');
    2280:	2025      	movs	r0, #37	; 0x25
    2282:	f7ff fd41 	bl	1d08 <dgout>
				dgout (*mess);
    2286:	7830      	ldrb	r0, [r6, #0]
    2288:	f7ff fd3e 	bl	1d08 <dgout>
    228c:	e010      	b.n	22b0 <diag+0xb4>
			switch (*mess) {
    228e:	2b78      	cmp	r3, #120	; 0x78
    2290:	d1f6      	bne.n	2280 <diag+0x84>
    2292:	2400      	movs	r4, #0
					v = __pi_hex_enc_table [
    2294:	f8df 90a4 	ldr.w	r9, [pc, #164]	; 233c <diag+0x140>
					i += 4;
    2298:	3404      	adds	r4, #4
					(val >> (bc - i)) & 0xf];
    229a:	1b2b      	subs	r3, r5, r4
    229c:	fa21 f303 	lsr.w	r3, r1, r3
    22a0:	f003 030f 	and.w	r3, r3, #15
					dgout (v);
    22a4:	f819 0003 	ldrb.w	r0, [r9, r3]
    22a8:	f7ff fd2e 	bl	1d08 <dgout>
				while (i < bc) {
    22ac:	42a5      	cmp	r5, r4
    22ae:	dcf3      	bgt.n	2298 <diag+0x9c>
			mess++;
    22b0:	3601      	adds	r6, #1
					d /= 10;
    22b2:	4635      	mov	r5, r6
    22b4:	e7b3      	b.n	221e <diag+0x22>
				if ((val >> (bc - 1)) & 1) {
    22b6:	1e6b      	subs	r3, r5, #1
    22b8:	fa21 f303 	lsr.w	r3, r1, r3
    22bc:	07da      	lsls	r2, r3, #31
    22be:	d509      	bpl.n	22d4 <diag+0xd8>
					dgout ('-');
    22c0:	202d      	movs	r0, #45	; 0x2d
    22c2:	f7ff fd21 	bl	1d08 <dgout>
					if (bc == 16)
    22c6:	2d10      	cmp	r5, #16
						val |= 0xffff0000;
    22c8:	bf04      	itt	eq
    22ca:	ea6f 4401 	mvneq.w	r4, r1, lsl #16
    22ce:	ea6f 4414 	mvneq.w	r4, r4, lsr #16
					val = ~val + 1;
    22d2:	4264      	negs	r4, r4
				d = (bc == 16) ? 10000 : 1000000000;
    22d4:	f242 7110 	movw	r1, #10000	; 0x2710
    22d8:	2d10      	cmp	r5, #16
    22da:	bf18      	it	ne
    22dc:	4641      	movne	r1, r8
					v = (word) (val / d);
    22de:	fbb4 f5f1 	udiv	r5, r4, r1
    22e2:	b2ad      	uxth	r5, r5
					if (v || d == 1) break;
    22e4:	b935      	cbnz	r5, 22f4 <diag+0xf8>
    22e6:	2901      	cmp	r1, #1
    22e8:	d004      	beq.n	22f4 <diag+0xf8>
					d /= 10;
    22ea:	fbb1 f1f7 	udiv	r1, r1, r7
					v = (word) (val / d);
    22ee:	e7f6      	b.n	22de <diag+0xe2>
				d = (bc == 16) ? 10000 : 1000000000;
    22f0:	4910      	ldr	r1, [pc, #64]	; (2334 <diag+0x138>)
    22f2:	e7f4      	b.n	22de <diag+0xe2>
					dgout (v + '0');
    22f4:	f105 0030 	add.w	r0, r5, #48	; 0x30
    22f8:	b280      	uxth	r0, r0
    22fa:	f7ff fd05 	bl	1d08 <dgout>
					if (d == 0) break;
    22fe:	2909      	cmp	r1, #9
					d /= 10;
    2300:	fbb1 f3f7 	udiv	r3, r1, r7
					val = val - (v * d);
    2304:	fb01 4415 	mls	r4, r1, r5, r4
					if (d == 0) break;
    2308:	d9d2      	bls.n	22b0 <diag+0xb4>
					v = (word) (val / d);
    230a:	fbb4 f5f3 	udiv	r5, r4, r3
					d /= 10;
    230e:	4619      	mov	r1, r3
					v = (word) (val / d);
    2310:	b2ad      	uxth	r5, r5
					dgout (v + '0');
    2312:	e7ef      	b.n	22f4 <diag+0xf8>
				if (bc == 16)
    2314:	2d10      	cmp	r5, #16
    2316:	d1eb      	bne.n	22f0 <diag+0xf4>
					val &= 0xffff;
    2318:	b28c      	uxth	r4, r1
				d = (bc == 16) ? 10000 : 1000000000;
    231a:	f242 7110 	movw	r1, #10000	; 0x2710
    231e:	e7de      	b.n	22de <diag+0xe2>
					dgout (*s);
    2320:	f7ff fcf2 	bl	1d08 <dgout>
					s++;
    2324:	3101      	adds	r1, #1
				while (*s != '\0') {
    2326:	7808      	ldrb	r0, [r1, #0]
    2328:	2800      	cmp	r0, #0
    232a:	d1f9      	bne.n	2320 <diag+0x124>
    232c:	e7c0      	b.n	22b0 <diag+0xb4>
			dgout (*mess++);
    232e:	f7ff fceb 	bl	1d08 <dgout>
    2332:	e7be      	b.n	22b2 <diag+0xb6>
    2334:	3b9aca00 	blcc	fe6b4b3c <_estack+0xde6afb3c>
    2338:	40001000 	andmi	r1, r0, r0
    233c:	00005351 	andeq	r5, r0, r1, asr r3

00002340 <lrnd>:
// ============================================================================
// High-quality RNG (oh, well, as high as we can afford) ======================
// ============================================================================
#if RANDOM_NUMBER_GENERATOR > 1
lword lrnd () {
	__pi_seed = __pi_seed * 1103515245 + 12345;
    2340:	f243 0339 	movw	r3, #12345	; 0x3039
    2344:	4a04      	ldr	r2, [pc, #16]	; (2358 <lrnd+0x18>)
    2346:	4905      	ldr	r1, [pc, #20]	; (235c <lrnd+0x1c>)
    2348:	6810      	ldr	r0, [r2, #0]
    234a:	fb01 3300 	mla	r3, r1, r0, r3
    234e:	6013      	str	r3, [r2, #0]
	return __pi_seed
#if ENTROPY_COLLECTION
	^ entropy
    2350:	4a03      	ldr	r2, [pc, #12]	; (2360 <lrnd+0x20>)
    2352:	6810      	ldr	r0, [r2, #0]
#endif
	;
}
    2354:	4058      	eors	r0, r3
    2356:	4770      	bx	lr
    2358:	20000004 	andcs	r0, r0, r4
    235c:	41c64e6d 	bicmi	r4, r6, sp, ror #28
    2360:	20000678 	andcs	r0, r0, r8, ror r6

00002364 <enq>:
#define	deqhk(a)	CNOP
#endif

// ============================================================================

__PRIVF (PicOSNode, void, enq) (qhead_t *q, hblock_t *p) {
    2364:	b538      	push	{r3, r4, r5, lr}
/*
 * Inserts a buffer into a queue
 */
	sysassert (p->attributes.b.queued == 0, "tcv01");
    2366:	7a8b      	ldrb	r3, [r1, #10]
__PRIVF (PicOSNode, void, enq) (qhead_t *q, hblock_t *p) {
    2368:	4605      	mov	r5, r0
	sysassert (p->attributes.b.queued == 0, "tcv01");
    236a:	07da      	lsls	r2, r3, #31
__PRIVF (PicOSNode, void, enq) (qhead_t *q, hblock_t *p) {
    236c:	460c      	mov	r4, r1
	sysassert (p->attributes.b.queued == 0, "tcv01");
    236e:	d503      	bpl.n	2378 <enq+0x14>
    2370:	200a      	movs	r0, #10
    2372:	490e      	ldr	r1, [pc, #56]	; (23ac <enq+0x48>)
    2374:	f7fe ff30 	bl	11d8 <__pi_syserror>
	if (q_empty (q))
    2378:	6803      	ldr	r3, [r0, #0]
    237a:	4283      	cmp	r3, r0
    237c:	d101      	bne.n	2382 <enq+0x1e>
		trigger (q);
    237e:	f7ff fd79 	bl	1e74 <__pi_trigger>
	if (p->attributes.b.urgent) {
    2382:	7aa3      	ldrb	r3, [r4, #10]
    2384:	075b      	lsls	r3, r3, #29
    2386:	d50a      	bpl.n	239e <enq+0x3a>
		// At the front
		p->u.bqueue.next = q->next;
    2388:	682b      	ldr	r3, [r5, #0]
		p->u.bqueue.prev = q;
    238a:	e9c4 3500 	strd	r3, r5, [r4]
		q->next->prev = (qitem_t*) p;
    238e:	682b      	ldr	r3, [r5, #0]
    2390:	605c      	str	r4, [r3, #4]
		q->next = (qitem_t*) p;
    2392:	602c      	str	r4, [r5, #0]
		p->u.bqueue.next = q;
		p->u.bqueue.prev = q->prev;
		q->prev->next = (qitem_t*) p;
		q->prev = (qitem_t*) p;
	}
	p->attributes.b.queued = 1;
    2394:	7aa3      	ldrb	r3, [r4, #10]
    2396:	f043 0301 	orr.w	r3, r3, #1
    239a:	72a3      	strb	r3, [r4, #10]
}
    239c:	bd38      	pop	{r3, r4, r5, pc}
		p->u.bqueue.next = q;
    239e:	6025      	str	r5, [r4, #0]
		p->u.bqueue.prev = q->prev;
    23a0:	686b      	ldr	r3, [r5, #4]
    23a2:	6063      	str	r3, [r4, #4]
		q->prev->next = (qitem_t*) p;
    23a4:	601c      	str	r4, [r3, #0]
		q->prev = (qitem_t*) p;
    23a6:	606c      	str	r4, [r5, #4]
    23a8:	e7f4      	b.n	2394 <enq+0x30>
    23aa:	bf00      	nop
    23ac:	00005361 	andeq	r5, r0, r1, ror #6

000023b0 <apb>:
/*
 * Forced implicit packet dropping removed. Plugins will have to drop
 * packets explicitly (if they really want to).
 */

__PRIVF (PicOSNode, hblock_t*, apb) (word size) {
    23b0:	b510      	push	{r4, lr}
    23b2:	4604      	mov	r4, r0
/* ========================================= */
/* Allocates a packet buffer size bytes long */
/* ========================================= */

	hblock_t *p;
	word cs = size + hblenb;
    23b4:	300c      	adds	r0, #12

	if ((p = (hblock_t*)b_malloc (cs)) == NULL)
    23b6:	b280      	uxth	r0, r0
    23b8:	f7ff fea6 	bl	2108 <__pi_malloc>
    23bc:	b110      	cbz	r0, 23c4 <apb+0x14>

#if	TCV_HOOKS
	p -> hptr = NULL;
#endif
	p -> length = size;
	p -> attributes . value = 0;
    23be:	2300      	movs	r3, #0
	p -> length = size;
    23c0:	8104      	strh	r4, [r0, #8]
	p -> attributes . value = 0;
    23c2:	8143      	strh	r3, [r0, #10]
#endif
	return p;
	/*
	 * Note that this doesn't initialize the plugin/phys/session stuff.
	 */
}
    23c4:	bd10      	pop	{r4, pc}

000023c6 <deq>:
	if (p->attributes.b.queued) {
    23c6:	7a83      	ldrb	r3, [r0, #10]
    23c8:	07db      	lsls	r3, r3, #31
    23ca:	d508      	bpl.n	23de <deq+0x18>
		p->u.bqueue.next -> prev = p->u.bqueue.prev;
    23cc:	e9d0 2300 	ldrd	r2, r3, [r0]
    23d0:	6053      	str	r3, [r2, #4]
		p->u.bqueue.prev -> next = p->u.bqueue.next;
    23d2:	6802      	ldr	r2, [r0, #0]
    23d4:	601a      	str	r2, [r3, #0]
		p->attributes.b.queued = 0;
    23d6:	7a83      	ldrb	r3, [r0, #10]
    23d8:	f36f 0300 	bfc	r3, #0, #1
    23dc:	7283      	strb	r3, [r0, #10]
}
    23de:	4770      	bx	lr

000023e0 <rlp>:
__PRIVF (PicOSNode, void, rlp) (hblock_t *p) {
    23e0:	b508      	push	{r3, lr}
	deq (p);	// Remove from queue
    23e2:	f7ff fff0 	bl	23c6 <deq>
}
    23e6:	e8bd 4008 	ldmia.w	sp!, {r3, lr}
	tfree ((address)p);
    23ea:	f7ff be41 	b.w	2070 <__pi_free>
	...

000023f0 <dispose>:
__PRIVF (PicOSNode, void, dispose) (hblock_t *p, int dv) {
    23f0:	b510      	push	{r4, lr}
	switch (dv) {
    23f2:	3901      	subs	r1, #1
__PRIVF (PicOSNode, void, dispose) (hblock_t *p, int dv) {
    23f4:	4604      	mov	r4, r0
	deq (p);	// Soft dequeue, timer and hook left intact
    23f6:	f7ff ffe6 	bl	23c6 <deq>
	switch (dv) {
    23fa:	2904      	cmp	r1, #4
    23fc:	d832      	bhi.n	2464 <dispose+0x74>
    23fe:	e8df f001 	tbb	[pc, r1]
    2402:	1d03072d 	stcne	7, cr0, [r3, #-180]	; 0xffffff4c
    2406:	7a830019 	bvc	fe0c2472 <_estack+0xde0bd472>
			p->attributes.b.urgent = 1;
    240a:	f043 0304 	orr.w	r3, r3, #4
    240e:	7283      	strb	r3, [r0, #10]
			verify_ses (p, "dispose ses");
    2410:	8963      	ldrh	r3, [r4, #10]
    2412:	f3c3 03c6 	ubfx	r3, r3, #3, #7
    2416:	2b07      	cmp	r3, #7
    2418:	d803      	bhi.n	2422 <dispose+0x32>
    241a:	4a13      	ldr	r2, [pc, #76]	; (2468 <dispose+0x78>)
    241c:	f852 0023 	ldr.w	r0, [r2, r3, lsl #2]
    2420:	b918      	cbnz	r0, 242a <dispose+0x3a>
    2422:	4912      	ldr	r1, [pc, #72]	; (246c <dispose+0x7c>)
			verify_phy (p, "dispose phy");
    2424:	200a      	movs	r0, #10
    2426:	f7fe fed7 	bl	11d8 <__pi_syserror>
			enq (&(descriptors [p->attributes.b.session]->rqueue),
    242a:	4621      	mov	r1, r4
}
    242c:	e8bd 4010 	ldmia.w	sp!, {r4, lr}
			enq (oqueues [p->attributes.b.phys], p);
    2430:	f7ff bf98 	b.w	2364 <enq>
			p->attributes.b.urgent = 1;
    2434:	7a83      	ldrb	r3, [r0, #10]
    2436:	f043 0304 	orr.w	r3, r3, #4
    243a:	7283      	strb	r3, [r0, #10]
			verify_phy (p, "dispose phy");
    243c:	7ae2      	ldrb	r2, [r4, #11]
    243e:	2a5f      	cmp	r2, #95	; 0x5f
    2440:	ea4f 1352 	mov.w	r3, r2, lsr #5
    2444:	d803      	bhi.n	244e <dispose+0x5e>
    2446:	4a0a      	ldr	r2, [pc, #40]	; (2470 <dispose+0x80>)
    2448:	f852 2023 	ldr.w	r2, [r2, r3, lsl #2]
    244c:	b90a      	cbnz	r2, 2452 <dispose+0x62>
    244e:	4909      	ldr	r1, [pc, #36]	; (2474 <dispose+0x84>)
    2450:	e7e8      	b.n	2424 <dispose+0x34>
			enq (oqueues [p->attributes.b.phys], p);
    2452:	4a09      	ldr	r2, [pc, #36]	; (2478 <dispose+0x88>)
    2454:	4621      	mov	r1, r4
    2456:	f852 0023 	ldr.w	r0, [r2, r3, lsl #2]
    245a:	e7e7      	b.n	242c <dispose+0x3c>
}
    245c:	e8bd 4010 	ldmia.w	sp!, {r4, lr}
			rlp (p);
    2460:	f7ff bfbe 	b.w	23e0 <rlp>
}
    2464:	bd10      	pop	{r4, pc}
    2466:	bf00      	nop
    2468:	20000690 	mulcs	r0, r0, r6
    246c:	00005367 	andeq	r5, r0, r7, ror #6
    2470:	200006bc 			; <UNDEFINED> instruction: 0x200006bc
    2474:	00005373 	andeq	r5, r0, r3, ror r3
    2478:	200006b0 			; <UNDEFINED> instruction: 0x200006b0

0000247c <tcv_endp>:
		/* ===================================== */
		/* Functions callable by the application */
		/* ===================================== */
/* ---------------------------------------------------------------------- */

__PUBLF (PicOSNode, void, tcv_endp) (address p) {
    247c:	b510      	push	{r4, lr}
 * somewhere or deallocated.
 */
	hblock_t *b;

	b = header (p);
	if (b->attributes.b.outgoing) {
    247e:	f810 2c02 	ldrb.w	r2, [r0, #-2]
	b = header (p);
    2482:	f1a0 040c 	sub.w	r4, r0, #12
	if (b->attributes.b.outgoing) {
    2486:	0792      	lsls	r2, r2, #30
    2488:	d522      	bpl.n	24d0 <tcv_endp+0x54>
		verify_ses (b, "tcv02");
    248a:	f830 2c02 	ldrh.w	r2, [r0, #-2]
    248e:	f3c2 02c6 	ubfx	r2, r2, #3, #7
    2492:	2a07      	cmp	r2, #7
    2494:	d803      	bhi.n	249e <tcv_endp+0x22>
    2496:	4911      	ldr	r1, [pc, #68]	; (24dc <tcv_endp+0x60>)
    2498:	f851 2022 	ldr.w	r2, [r1, r2, lsl #2]
    249c:	b91a      	cbnz	r2, 24a6 <tcv_endp+0x2a>
    249e:	4910      	ldr	r1, [pc, #64]	; (24e0 <tcv_endp+0x64>)
		verify_plg (b, tcv_out, "tcv03");
    24a0:	200a      	movs	r0, #10
    24a2:	f7fe fe99 	bl	11d8 <__pi_syserror>
    24a6:	f810 3c01 	ldrb.w	r3, [r0, #-1]
    24aa:	f3c3 0382 	ubfx	r3, r3, #2, #3
    24ae:	2b02      	cmp	r3, #2
    24b0:	d805      	bhi.n	24be <tcv_endp+0x42>
    24b2:	4a0c      	ldr	r2, [pc, #48]	; (24e4 <tcv_endp+0x68>)
    24b4:	f852 3023 	ldr.w	r3, [r2, r3, lsl #2]
    24b8:	b10b      	cbz	r3, 24be <tcv_endp+0x42>
    24ba:	691b      	ldr	r3, [r3, #16]
    24bc:	b90b      	cbnz	r3, 24c2 <tcv_endp+0x46>
    24be:	490a      	ldr	r1, [pc, #40]	; (24e8 <tcv_endp+0x6c>)
    24c0:	e7ee      	b.n	24a0 <tcv_endp+0x24>
		dispose (b, plugins [b->attributes.b.plugin] ->
    24c2:	4798      	blx	r3
    24c4:	4601      	mov	r1, r0
    24c6:	4620      	mov	r0, r4
		 * This is a received packet - just drop it, no need to verify
		 * session, can be legitimately invoked after the session has
		 * been closed,
		 */
		rlp (b);
}
    24c8:	e8bd 4010 	ldmia.w	sp!, {r4, lr}
		dispose (b, plugins [b->attributes.b.plugin] ->
    24cc:	f7ff bf90 	b.w	23f0 <dispose>
		rlp (b);
    24d0:	4620      	mov	r0, r4
}
    24d2:	e8bd 4010 	ldmia.w	sp!, {r4, lr}
		rlp (b);
    24d6:	f7ff bf83 	b.w	23e0 <rlp>
    24da:	bf00      	nop
    24dc:	20000690 	mulcs	r0, r0, r6
    24e0:	0000537f 	andeq	r5, r0, pc, ror r3
    24e4:	200006d4 	ldrdcs	r0, [r0], -r4
    24e8:	00005385 	andeq	r5, r0, r5, lsl #7

000024ec <tcv_open>:
#else
// ============================================================================

// Non-blocking open and close

__PUBLF (PicOSNode, int, tcv_open) (word state, int phy, int plid, ... ) {
    24ec:	b40c      	push	{r2, r3}
    24ee:	e92d 47f3 	stmdb	sp!, {r0, r1, r4, r5, r6, r7, r8, r9, sl, lr}
    24f2:	ab0a      	add	r3, sp, #40	; 0x28
    24f4:	f853 8b04 	ldr.w	r8, [r3], #4
	va_list		ap;
	va_start (ap, plid);

#if DIAG_MESSAGES > 1
	/* Check if we have the plugin and the phy */
	if (phy < 0 || phy >= TCV_MAX_PHYS || oqueues [phy] == NULL ||
    24f8:	2902      	cmp	r1, #2
__PUBLF (PicOSNode, int, tcv_open) (word state, int phy, int plid, ... ) {
    24fa:	460f      	mov	r7, r1
	va_start (ap, plid);
    24fc:	9301      	str	r3, [sp, #4]
	if (phy < 0 || phy >= TCV_MAX_PHYS || oqueues [phy] == NULL ||
    24fe:	d80b      	bhi.n	2518 <tcv_open+0x2c>
    2500:	4b24      	ldr	r3, [pc, #144]	; (2594 <tcv_open+0xa8>)
    2502:	f853 3021 	ldr.w	r3, [r3, r1, lsl #2]
    2506:	b13b      	cbz	r3, 2518 <tcv_open+0x2c>
		plid < 0 || plid >= TCV_MAX_PLUGS || plugins [plid] == NULL)
    2508:	f1b8 0f02 	cmp.w	r8, #2
    250c:	d804      	bhi.n	2518 <tcv_open+0x2c>
    250e:	f8df 9088 	ldr.w	r9, [pc, #136]	; 2598 <tcv_open+0xac>
    2512:	f859 3028 	ldr.w	r3, [r9, r8, lsl #2]
    2516:	b91b      	cbnz	r3, 2520 <tcv_open+0x34>
			syserror (ENODEVICE, "tcv04");
    2518:	2001      	movs	r0, #1
    251a:	4920      	ldr	r1, [pc, #128]	; (259c <tcv_open+0xb0>)
	if (fd == TCV_MAX_DESC)
		return ERROR;

	s = (sesdesc_t*) s_malloc (sizeof (sesdesc_t));
	if (s == NULL)
		syserror (EMALLOC, "tcv05");
    251c:	f7fe fe5c 	bl	11d8 <__pi_syserror>
	attp.b.outgoing = 1;
    2520:	f008 0307 	and.w	r3, r8, #7
    2524:	029b      	lsls	r3, r3, #10
    2526:	f043 0302 	orr.w	r3, r3, #2
    252a:	ea43 3541 	orr.w	r5, r3, r1, lsl #13
	for (fd = 0; fd < TCV_MAX_DESC; fd++)
    252e:	4b1c      	ldr	r3, [pc, #112]	; (25a0 <tcv_open+0xb4>)
    2530:	2600      	movs	r6, #0
    2532:	469a      	mov	sl, r3
		if (descriptors [fd] == NULL)
    2534:	f853 2b04 	ldr.w	r2, [r3], #4
    2538:	b312      	cbz	r2, 2580 <tcv_open+0x94>
	for (fd = 0; fd < TCV_MAX_DESC; fd++)
    253a:	3601      	adds	r6, #1
    253c:	2e08      	cmp	r6, #8
    253e:	d1f9      	bne.n	2534 <tcv_open+0x48>
		return ERROR;
    2540:	f04f 36ff 	mov.w	r6, #4294967295	; 0xffffffff
		return ERROR;
	}

	descriptors [fd] = s;
	return fd;
}
    2544:	4630      	mov	r0, r6
    2546:	b002      	add	sp, #8
    2548:	e8bd 47f0 	ldmia.w	sp!, {r4, r5, r6, r7, r8, r9, sl, lr}
    254c:	b002      	add	sp, #8
    254e:	4770      	bx	lr
	s->attpattern.b.session = fd;
    2550:	462b      	mov	r3, r5
    2552:	f366 03c9 	bfi	r3, r6, #3, #7
	descriptors [fd] = s;
    2556:	f84a 4026 	str.w	r4, [sl, r6, lsl #2]
	s->attpattern.b.session = fd;
    255a:	8123      	strh	r3, [r4, #8]
	q_init (&(s->rqueue));
    255c:	e9c4 4400 	strd	r4, r4, [r4]
	sysassert (plugins [plid] -> tcv_ope != NULL, "tcv06");
    2560:	f859 3028 	ldr.w	r3, [r9, r8, lsl #2]
    2564:	681b      	ldr	r3, [r3, #0]
    2566:	b913      	cbnz	r3, 256e <tcv_open+0x82>
    2568:	200a      	movs	r0, #10
    256a:	490e      	ldr	r1, [pc, #56]	; (25a4 <tcv_open+0xb8>)
    256c:	e7d6      	b.n	251c <tcv_open+0x30>
	if (plugins [plid] -> tcv_ope (phy, fd, ap)) {
    256e:	4631      	mov	r1, r6
    2570:	4638      	mov	r0, r7
    2572:	9a01      	ldr	r2, [sp, #4]
    2574:	4798      	blx	r3
    2576:	2800      	cmp	r0, #0
    2578:	d1e2      	bne.n	2540 <tcv_open+0x54>
	descriptors [fd] = s;
    257a:	f84a 4026 	str.w	r4, [sl, r6, lsl #2]
	return fd;
    257e:	e7e1      	b.n	2544 <tcv_open+0x58>
	s = (sesdesc_t*) s_malloc (sizeof (sesdesc_t));
    2580:	200c      	movs	r0, #12
    2582:	f7ff fdc1 	bl	2108 <__pi_malloc>
	if (s == NULL)
    2586:	4604      	mov	r4, r0
    2588:	2800      	cmp	r0, #0
    258a:	d1e1      	bne.n	2550 <tcv_open+0x64>
		syserror (EMALLOC, "tcv05");
    258c:	2006      	movs	r0, #6
    258e:	4906      	ldr	r1, [pc, #24]	; (25a8 <tcv_open+0xbc>)
    2590:	e7c4      	b.n	251c <tcv_open+0x30>
    2592:	bf00      	nop
    2594:	200006b0 			; <UNDEFINED> instruction: 0x200006b0
    2598:	200006d4 	ldrdcs	r0, [r0], -r4
    259c:	0000538b 	andeq	r5, r0, fp, lsl #7
    25a0:	20000690 	mulcs	r0, r0, r6
    25a4:	00005397 	muleq	r0, r7, r3
    25a8:	00005391 	muleq	r0, r1, r3

000025ac <tcv_plug>:

__PUBLF (PicOSNode, int, tcv_plug) (int ord, const tcvplug_t *pl) {
/*
 * This is one way now. Later we may implement switching plugs on the fly.
 */
	if (ord < 0 || ord >= TCV_MAX_PLUGS ||
    25ac:	2802      	cmp	r0, #2
    25ae:	d809      	bhi.n	25c4 <tcv_plug+0x18>
	    (plugins [ord] != NULL && plugins [ord] != pl))
    25b0:	4b06      	ldr	r3, [pc, #24]	; (25cc <tcv_plug+0x20>)
    25b2:	f853 2020 	ldr.w	r2, [r3, r0, lsl #2]
	if (ord < 0 || ord >= TCV_MAX_PLUGS ||
    25b6:	b10a      	cbz	r2, 25bc <tcv_plug+0x10>
	    (plugins [ord] != NULL && plugins [ord] != pl))
    25b8:	428a      	cmp	r2, r1
    25ba:	d103      	bne.n	25c4 <tcv_plug+0x18>
		return ERROR;

	plugins [ord] = pl;
    25bc:	f843 1020 	str.w	r1, [r3, r0, lsl #2]
	return 0;
    25c0:	2000      	movs	r0, #0
    25c2:	4770      	bx	lr
		return ERROR;
    25c4:	f04f 30ff 	mov.w	r0, #4294967295	; 0xffffffff
}
    25c8:	4770      	bx	lr
    25ca:	bf00      	nop
    25cc:	200006d4 	ldrdcs	r0, [r0], -r4

000025d0 <tcv_rnp>:
 */
	address p;
	hblock_t *b;
	qhead_t *rq;

	verify_fds (fd, "tcv10");
    25d0:	2908      	cmp	r1, #8
__PUBLF (PicOSNode, address, tcv_rnp) (word state, int fd) {
    25d2:	b538      	push	{r3, r4, r5, lr}
    25d4:	4603      	mov	r3, r0
	verify_fds (fd, "tcv10");
    25d6:	d803      	bhi.n	25e0 <tcv_rnp+0x10>
    25d8:	4a19      	ldr	r2, [pc, #100]	; (2640 <tcv_rnp+0x70>)
    25da:	f852 0021 	ldr.w	r0, [r2, r1, lsl #2]
    25de:	b918      	cbnz	r0, 25e8 <tcv_rnp+0x18>
    25e0:	4918      	ldr	r1, [pc, #96]	; (2644 <tcv_rnp+0x74>)
	deqtm (b);	// ... and clear its timer

	/* Packet pointer */
	p = ((address)(b + 1));
	/* Set the pointers to application data */
	verify_plg (b, tcv_frm, "tcv11");
    25e2:	200a      	movs	r0, #10
    25e4:	f7fe fdf8 	bl	11d8 <__pi_syserror>
	b = q_first (rq);
    25e8:	6804      	ldr	r4, [r0, #0]
	if (q_end (b, rq)) {
    25ea:	42a0      	cmp	r0, r4
    25ec:	d108      	bne.n	2600 <tcv_rnp+0x30>
		if (state != WNONE) {
    25ee:	f64f 72ff 	movw	r2, #65535	; 0xffff
    25f2:	4293      	cmp	r3, r2
    25f4:	d021      	beq.n	263a <tcv_rnp+0x6a>
			when (rq, state);
    25f6:	4619      	mov	r1, r3
    25f8:	f7ff fc22 	bl	1e40 <__pi_wait>
			release;
    25fc:	f7ff f9a6 	bl	194c <__pi_release>
	deq (b);	// Dequeue the packet ...
    2600:	4620      	mov	r0, r4
    2602:	f7ff fee0 	bl	23c6 <deq>
	verify_plg (b, tcv_frm, "tcv11");
    2606:	7ae3      	ldrb	r3, [r4, #11]
	p = ((address)(b + 1));
    2608:	f104 050c 	add.w	r5, r4, #12
	verify_plg (b, tcv_frm, "tcv11");
    260c:	f3c3 0382 	ubfx	r3, r3, #2, #3
    2610:	2b02      	cmp	r3, #2
    2612:	d805      	bhi.n	2620 <tcv_rnp+0x50>
    2614:	4a0c      	ldr	r2, [pc, #48]	; (2648 <tcv_rnp+0x78>)
    2616:	f852 3023 	ldr.w	r3, [r2, r3, lsl #2]
    261a:	b10b      	cbz	r3, 2620 <tcv_rnp+0x50>
    261c:	68db      	ldr	r3, [r3, #12]
    261e:	b90b      	cbnz	r3, 2624 <tcv_rnp+0x54>
    2620:	490a      	ldr	r1, [pc, #40]	; (264c <tcv_rnp+0x7c>)
    2622:	e7de      	b.n	25e2 <tcv_rnp+0x12>
	plugins [b->attributes.b.plugin]->tcv_frm (p, &(b->u.pointers));
    2624:	4621      	mov	r1, r4
    2626:	4628      	mov	r0, r5
    2628:	4798      	blx	r3
	/* Adjust the second pointer to look like the length */
	b->u.pointers.tail =
		b->length - b->u.pointers.head - b->u.pointers.tail;
    262a:	8823      	ldrh	r3, [r4, #0]
    262c:	8862      	ldrh	r2, [r4, #2]
    262e:	441a      	add	r2, r3
    2630:	8923      	ldrh	r3, [r4, #8]
    2632:	1a9b      	subs	r3, r3, r2
	b->u.pointers.tail =
    2634:	8063      	strh	r3, [r4, #2]
	/* OK, it seems that we are set */
	return p;
}
    2636:	4628      	mov	r0, r5
    2638:	bd38      	pop	{r3, r4, r5, pc}
		return NULL;
    263a:	2500      	movs	r5, #0
    263c:	e7fb      	b.n	2636 <tcv_rnp+0x66>
    263e:	bf00      	nop
    2640:	20000690 	mulcs	r0, r0, r6
    2644:	0000539d 	muleq	r0, sp, r3
    2648:	200006d4 	ldrdcs	r0, [r0], -r4
    264c:	000053a3 	andeq	r5, r0, r3, lsr #7

00002650 <tcv_wnps>:
	hblock_t *b;
	tcvadp_t ptrs;
	sesdesc_t *s;
	int eid;

	verify_fds (fd, "tcv16");
    2650:	2908      	cmp	r1, #8
								Boolean urg) {
    2652:	b5f7      	push	{r0, r1, r2, r4, r5, r6, r7, lr}
    2654:	4605      	mov	r5, r0
    2656:	4614      	mov	r4, r2
    2658:	461e      	mov	r6, r3
	verify_fds (fd, "tcv16");
    265a:	d803      	bhi.n	2664 <tcv_wnps+0x14>
    265c:	4b26      	ldr	r3, [pc, #152]	; (26f8 <tcv_wnps+0xa8>)
    265e:	f853 7021 	ldr.w	r7, [r3, r1, lsl #2]
    2662:	b91f      	cbnz	r7, 266c <tcv_wnps+0x1c>
    2664:	4925      	ldr	r1, [pc, #148]	; (26fc <tcv_wnps+0xac>)

	s = descriptors [fd];

	verify_pld (s, tcv_frm, "tcv17");
    2666:	200a      	movs	r0, #10
    2668:	f7fe fdb6 	bl	11d8 <__pi_syserror>
    266c:	7a7b      	ldrb	r3, [r7, #9]
    266e:	f3c3 0382 	ubfx	r3, r3, #2, #3
    2672:	2b02      	cmp	r3, #2
    2674:	d805      	bhi.n	2682 <tcv_wnps+0x32>
    2676:	4a22      	ldr	r2, [pc, #136]	; (2700 <tcv_wnps+0xb0>)
    2678:	f852 3023 	ldr.w	r3, [r2, r3, lsl #2]
    267c:	b10b      	cbz	r3, 2682 <tcv_wnps+0x32>
    267e:	68db      	ldr	r3, [r3, #12]
    2680:	b90b      	cbnz	r3, 2686 <tcv_wnps+0x36>
    2682:	4920      	ldr	r1, [pc, #128]	; (2704 <tcv_wnps+0xb4>)
    2684:	e7ef      	b.n	2666 <tcv_wnps+0x16>

	// tcv_frm invoked with packet == NULL, pass in the frame parameters
	// the session and urgent flag
	ptrs.head = (word) fd;
    2686:	f8ad 1004 	strh.w	r1, [sp, #4]
	ptrs.tail = (word) urg;

	if ((eid = plugins [s->attpattern.b.plugin]->tcv_frm (NULL, &ptrs))) {
    268a:	2000      	movs	r0, #0
	ptrs.tail = (word) urg;
    268c:	f8ad 6006 	strh.w	r6, [sp, #6]
	if ((eid = plugins [s->attpattern.b.plugin]->tcv_frm (NULL, &ptrs))) {
    2690:	a901      	add	r1, sp, #4
    2692:	4798      	blx	r3
    2694:	b158      	cbz	r0, 26ae <tcv_wnps+0x5e>
		// Blocked by the plugin
		if (state != WNONE) {
    2696:	f64f 73ff 	movw	r3, #65535	; 0xffff
    269a:	429d      	cmp	r5, r3
    269c:	d102      	bne.n	26a4 <tcv_wnps+0x54>
			when (eid, state);
			release;
		}
		return NULL;
    269e:	2000      	movs	r0, #0
		b->attributes.b.urgent = 1;
	b->u.pointers.head = ptrs.head;
	b->u.pointers.tail = length;

	return (address) (b + 1);
}
    26a0:	b003      	add	sp, #12
    26a2:	bdf0      	pop	{r4, r5, r6, r7, pc}
			when (eid, state);
    26a4:	4629      	mov	r1, r5
    26a6:	f7ff fbcb 	bl	1e40 <__pi_wait>
			release;
    26aa:	f7ff f94f 	bl	194c <__pi_release>
	sysassert (s->attpattern.b.queued == 0, "tcv18");
    26ae:	7a3b      	ldrb	r3, [r7, #8]
    26b0:	07db      	lsls	r3, r3, #31
    26b2:	d501      	bpl.n	26b8 <tcv_wnps+0x68>
    26b4:	4914      	ldr	r1, [pc, #80]	; (2708 <tcv_wnps+0xb8>)
    26b6:	e7d6      	b.n	2666 <tcv_wnps+0x16>
	if ((b = apb (length + ptrs . head + ptrs . tail)) == NULL) {
    26b8:	f8bd 0004 	ldrh.w	r0, [sp, #4]
    26bc:	f8bd 3006 	ldrh.w	r3, [sp, #6]
    26c0:	b2a4      	uxth	r4, r4
    26c2:	4418      	add	r0, r3
    26c4:	4420      	add	r0, r4
    26c6:	b280      	uxth	r0, r0
    26c8:	f7ff fe72 	bl	23b0 <apb>
    26cc:	b938      	cbnz	r0, 26de <tcv_wnps+0x8e>
		if (state != WNONE) {
    26ce:	f64f 73ff 	movw	r3, #65535	; 0xffff
    26d2:	429d      	cmp	r5, r3
    26d4:	d0e3      	beq.n	269e <tcv_wnps+0x4e>
			tmwait (state);
    26d6:	4628      	mov	r0, r5
    26d8:	f7ff fd84 	bl	21e4 <__pi_waitmem>
    26dc:	e7e5      	b.n	26aa <tcv_wnps+0x5a>
	b->attributes = s->attpattern;
    26de:	893b      	ldrh	r3, [r7, #8]
    26e0:	8143      	strh	r3, [r0, #10]
	if (urg)
    26e2:	b11e      	cbz	r6, 26ec <tcv_wnps+0x9c>
		b->attributes.b.urgent = 1;
    26e4:	7a83      	ldrb	r3, [r0, #10]
    26e6:	f043 0304 	orr.w	r3, r3, #4
    26ea:	7283      	strb	r3, [r0, #10]
	b->u.pointers.head = ptrs.head;
    26ec:	f8bd 3004 	ldrh.w	r3, [sp, #4]
	b->u.pointers.tail = length;
    26f0:	8044      	strh	r4, [r0, #2]
	b->u.pointers.head = ptrs.head;
    26f2:	8003      	strh	r3, [r0, #0]
	return (address) (b + 1);
    26f4:	300c      	adds	r0, #12
    26f6:	e7d3      	b.n	26a0 <tcv_wnps+0x50>
    26f8:	20000690 	mulcs	r0, r0, r6
    26fc:	000053a9 	andeq	r5, r0, r9, lsr #7
    2700:	200006d4 	ldrdcs	r0, [r0], -r4
    2704:	000053af 	andeq	r5, r0, pc, lsr #7
    2708:	000053b5 			; <UNDEFINED> instruction: 0x000053b5

0000270c <tcvp_control>:
	           /* ================================ */
	           /* Functions callable by the plugin */
	           /* ================================ */
/* ---------------------------------------------------------------------- */

__PUBLF (PicOSNode, int, tcvp_control) (int phy, int opt, address arg) {
    270c:	4603      	mov	r3, r0
/*
 * Plugin version of interface control
 */
	verify_fph (phy, "tcv23");
    270e:	2b03      	cmp	r3, #3
__PUBLF (PicOSNode, int, tcvp_control) (int phy, int opt, address arg) {
    2710:	4608      	mov	r0, r1
    2712:	b510      	push	{r4, lr}
    2714:	4611      	mov	r1, r2
	verify_fph (phy, "tcv23");
    2716:	d803      	bhi.n	2720 <tcvp_control+0x14>
    2718:	4a05      	ldr	r2, [pc, #20]	; (2730 <tcvp_control+0x24>)
    271a:	f852 3023 	ldr.w	r3, [r2, r3, lsl #2]
    271e:	b91b      	cbnz	r3, 2728 <tcvp_control+0x1c>
    2720:	200a      	movs	r0, #10
    2722:	4904      	ldr	r1, [pc, #16]	; (2734 <tcvp_control+0x28>)
    2724:	f7fe fd58 	bl	11d8 <__pi_syserror>
	return (physical [phy]) (opt, arg);
}
    2728:	e8bd 4010 	ldmia.w	sp!, {r4, lr}
	return (physical [phy]) (opt, arg);
    272c:	4718      	bx	r3
    272e:	bf00      	nop
    2730:	200006bc 			; <UNDEFINED> instruction: 0x200006bc
    2734:	000053bb 			; <UNDEFINED> instruction: 0x000053bb

00002738 <tcv_control>:
__PUBLF (PicOSNode, int, tcv_control) (int fd, int opt, address arg) {
    2738:	b508      	push	{r3, lr}
	if (opt < 0) {
    273a:	1e0b      	subs	r3, r1, #0
    273c:	da11      	bge.n	2762 <tcv_control+0x2a>
		if (fd < 0)
    273e:	2800      	cmp	r0, #0
    2740:	db1f      	blt.n	2782 <tcv_control+0x4a>
		if (opt == PHYSOPT_PLUGINFO) {
    2742:	3301      	adds	r3, #1
    2744:	d107      	bne.n	2756 <tcv_control+0x1e>
			if (fd >= TCV_MAX_PLUGS)
    2746:	2802      	cmp	r0, #2
    2748:	dc1b      	bgt.n	2782 <tcv_control+0x4a>
			if ((p = plugins [fd]) == NULL)
    274a:	4b0f      	ldr	r3, [pc, #60]	; (2788 <tcv_control+0x50>)
    274c:	f853 0020 	ldr.w	r0, [r3, r0, lsl #2]
    2750:	b100      	cbz	r0, 2754 <tcv_control+0x1c>
			return p->tcv_info;
    2752:	69c0      	ldr	r0, [r0, #28]
}
    2754:	bd08      	pop	{r3, pc}
		if (fd >= TCV_MAX_PHYS)
    2756:	2802      	cmp	r0, #2
    2758:	dc13      	bgt.n	2782 <tcv_control+0x4a>
		return physinfo [fd];
    275a:	4b0c      	ldr	r3, [pc, #48]	; (278c <tcv_control+0x54>)
    275c:	f853 0020 	ldr.w	r0, [r3, r0, lsl #2]
    2760:	e7f8      	b.n	2754 <tcv_control+0x1c>
	verify_fds (fd, "tcv22");
    2762:	2808      	cmp	r0, #8
    2764:	d803      	bhi.n	276e <tcv_control+0x36>
    2766:	4b0a      	ldr	r3, [pc, #40]	; (2790 <tcv_control+0x58>)
    2768:	f853 3020 	ldr.w	r3, [r3, r0, lsl #2]
    276c:	b91b      	cbnz	r3, 2776 <tcv_control+0x3e>
    276e:	200a      	movs	r0, #10
    2770:	4908      	ldr	r1, [pc, #32]	; (2794 <tcv_control+0x5c>)
    2772:	f7fe fd31 	bl	11d8 <__pi_syserror>
	return tcvp_control (descriptors [fd] -> attpattern.b.phys, opt, arg);
    2776:	7a58      	ldrb	r0, [r3, #9]
}
    2778:	e8bd 4008 	ldmia.w	sp!, {r3, lr}
	return tcvp_control (descriptors [fd] -> attpattern.b.phys, opt, arg);
    277c:	0940      	lsrs	r0, r0, #5
    277e:	f7ff bfc5 	b.w	270c <tcvp_control>
			return 0;
    2782:	2000      	movs	r0, #0
    2784:	e7e6      	b.n	2754 <tcv_control+0x1c>
    2786:	bf00      	nop
    2788:	200006d4 	ldrdcs	r0, [r0], -r4
    278c:	200006c8 	andcs	r0, r0, r8, asr #13
    2790:	20000690 	mulcs	r0, r0, r6
    2794:	000053c1 	andeq	r5, r0, r1, asr #7

00002798 <tcvp_new>:
 * Plugin-visible dispose
 */
	dispose (header (p), dsp);
}

__PUBLF (PicOSNode, address, tcvp_new) (int size, int dsp, int ses) {
    2798:	b5f8      	push	{r3, r4, r5, r6, r7, lr}
    279a:	b280      	uxth	r0, r0
    279c:	4615      	mov	r5, r2
/*
 * Create a new packet with attributes inherited from the session
 */
	hblock_t *p;

	if (dsp != TCV_DSP_PASS) {
    279e:	460e      	mov	r6, r1
    27a0:	b309      	cbz	r1, 27e6 <tcvp_new+0x4e>

		/* Session must be defined for that */
		if (ses == NONE)
    27a2:	1c53      	adds	r3, r2, #1
    27a4:	d103      	bne.n	27ae <tcvp_new+0x16>
			syserror (EREQPAR, "tcv26");
    27a6:	2003      	movs	r0, #3
    27a8:	4912      	ldr	r1, [pc, #72]	; (27f4 <tcvp_new+0x5c>)
		verify_fds (ses, "tcv27");
    27aa:	f7fe fd15 	bl	11d8 <__pi_syserror>
    27ae:	2a08      	cmp	r2, #8
    27b0:	d803      	bhi.n	27ba <tcvp_new+0x22>
    27b2:	4f11      	ldr	r7, [pc, #68]	; (27f8 <tcvp_new+0x60>)
    27b4:	f857 3022 	ldr.w	r3, [r7, r2, lsl #2]
    27b8:	b913      	cbnz	r3, 27c0 <tcvp_new+0x28>
    27ba:	200a      	movs	r0, #10
    27bc:	490f      	ldr	r1, [pc, #60]	; (27fc <tcvp_new+0x64>)
    27be:	e7f4      	b.n	27aa <tcvp_new+0x12>
			TCV_LIMIT_XMT)) {
		       		// Drop
		    	   	return NULL;
		}
#endif
		if ((p = apb (size)) != NULL) {
    27c0:	f7ff fdf6 	bl	23b0 <apb>
    27c4:	4604      	mov	r4, r0
    27c6:	b908      	cbnz	r0, 27cc <tcvp_new+0x34>
			/* If you accidentally call tcv_endp on it */
			p->attributes.b.outgoing = 0;
			dispose (p, dsp);
			return (address)(p + 1);
		}
		return NULL;
    27c8:	2000      	movs	r0, #0

	if ((p = apb (size)) != NULL)
		return (address)(p + 1);
	else
		return NULL;
}
    27ca:	bdf8      	pop	{r3, r4, r5, r6, r7, pc}
			p->attributes = descriptors [ses] -> attpattern;
    27cc:	f857 3025 	ldr.w	r3, [r7, r5, lsl #2]
			dispose (p, dsp);
    27d0:	4631      	mov	r1, r6
			p->attributes = descriptors [ses] -> attpattern;
    27d2:	891b      	ldrh	r3, [r3, #8]
    27d4:	8143      	strh	r3, [r0, #10]
			p->attributes.b.outgoing = 0;
    27d6:	f36f 0341 	bfc	r3, #1, #1
    27da:	7283      	strb	r3, [r0, #10]
			dispose (p, dsp);
    27dc:	f7ff fe08 	bl	23f0 <dispose>
			return (address)(p + 1);
    27e0:	f104 000c 	add.w	r0, r4, #12
    27e4:	e7f1      	b.n	27ca <tcvp_new+0x32>
	if ((p = apb (size)) != NULL)
    27e6:	f7ff fde3 	bl	23b0 <apb>
    27ea:	2800      	cmp	r0, #0
    27ec:	d0ec      	beq.n	27c8 <tcvp_new+0x30>
		return (address)(p + 1);
    27ee:	300c      	adds	r0, #12
    27f0:	e7eb      	b.n	27ca <tcvp_new+0x32>
    27f2:	bf00      	nop
    27f4:	000053c7 	andeq	r5, r0, r7, asr #7
    27f8:	20000690 	mulcs	r0, r0, r6
    27fc:	000053cd 	andeq	r5, r0, sp, asr #7

00002800 <tcvphy_reg>:
 * points to a function that controls (i.e., changes the options of) the
 * interface.
 */
	qhead_t *q;

	if (phy < 0 || phy >= TCV_MAX_PHYS || physical [phy] != NULL)
    2800:	2802      	cmp	r0, #2
__PUBLF (PicOSNode, int, tcvphy_reg) (int phy, ctrlfun_t ps, int info) {
    2802:	b510      	push	{r4, lr}
    2804:	4604      	mov	r4, r0
	if (phy < 0 || phy >= TCV_MAX_PHYS || physical [phy] != NULL)
    2806:	d803      	bhi.n	2810 <tcvphy_reg+0x10>
    2808:	4b0c      	ldr	r3, [pc, #48]	; (283c <tcvphy_reg+0x3c>)
    280a:	f853 0020 	ldr.w	r0, [r3, r0, lsl #2]
    280e:	b118      	cbz	r0, 2818 <tcvphy_reg+0x18>
		syserror (EREQPAR, "tcv28");
    2810:	2003      	movs	r0, #3
    2812:	490b      	ldr	r1, [pc, #44]	; (2840 <tcvphy_reg+0x40>)
	physical [phy] = ps;
	physinfo [phy] = info;

	oqueues [phy] = q = (qhead_t*) q_malloc (sizeof (qhead_t));
	if (q == NULL)
		syserror (EMALLOC, "tcv29");
    2814:	f7fe fce0 	bl	11d8 <__pi_syserror>
	physical [phy] = ps;
    2818:	f843 1024 	str.w	r1, [r3, r4, lsl #2]
	physinfo [phy] = info;
    281c:	4b09      	ldr	r3, [pc, #36]	; (2844 <tcvphy_reg+0x44>)
	oqueues [phy] = q = (qhead_t*) q_malloc (sizeof (qhead_t));
    281e:	2008      	movs	r0, #8
	physinfo [phy] = info;
    2820:	f843 2024 	str.w	r2, [r3, r4, lsl #2]
	oqueues [phy] = q = (qhead_t*) q_malloc (sizeof (qhead_t));
    2824:	f7ff fc70 	bl	2108 <__pi_malloc>
    2828:	4a07      	ldr	r2, [pc, #28]	; (2848 <tcvphy_reg+0x48>)
    282a:	f842 0024 	str.w	r0, [r2, r4, lsl #2]
	if (q == NULL)
    282e:	b910      	cbnz	r0, 2836 <tcvphy_reg+0x36>
		syserror (EMALLOC, "tcv29");
    2830:	2006      	movs	r0, #6
    2832:	4906      	ldr	r1, [pc, #24]	; (284c <tcvphy_reg+0x4c>)
    2834:	e7ee      	b.n	2814 <tcvphy_reg+0x14>
	q_init (q);
    2836:	e9c0 0000 	strd	r0, r0, [r0]
	/*
	 * Queue event identifier (which happens to be the queue pointer
	 * in disguise).
	 */
	return ptrtoint (q);
}
    283a:	bd10      	pop	{r4, pc}
    283c:	200006bc 			; <UNDEFINED> instruction: 0x200006bc
    2840:	000053d3 	ldrdeq	r5, [r0], -r3
    2844:	200006c8 	andcs	r0, r0, r8, asr #13
    2848:	200006b0 			; <UNDEFINED> instruction: 0x200006b0
    284c:	000053d9 	ldrdeq	r5, [r0], -r9

00002850 <tcvphy_rcv>:

__PUBLF (PicOSNode, int, tcvphy_rcv) (int phy, address p, int len) {
    2850:	e92d 4ff0 	stmdb	sp!, {r4, r5, r6, r7, r8, r9, sl, fp, lr}
 */
	int plg, dsp, ses;
	tcvadp_t ap;
	address c;

	verify_fph (phy, "tcv30");
    2854:	2803      	cmp	r0, #3
__PUBLF (PicOSNode, int, tcvphy_rcv) (int phy, address p, int len) {
    2856:	4605      	mov	r5, r0
    2858:	460e      	mov	r6, r1
    285a:	4614      	mov	r4, r2
    285c:	b085      	sub	sp, #20
	verify_fph (phy, "tcv30");
    285e:	d803      	bhi.n	2868 <tcvphy_rcv+0x18>
    2860:	4b1f      	ldr	r3, [pc, #124]	; (28e0 <tcvphy_rcv+0x90>)
    2862:	f853 3020 	ldr.w	r3, [r3, r0, lsl #2]
    2866:	b91b      	cbnz	r3, 2870 <tcvphy_rcv+0x20>
    2868:	491e      	ldr	r1, [pc, #120]	; (28e4 <tcvphy_rcv+0x94>)
		 * (or fall back) plugins to be used when none of the
		 * "specific" plugins claims the packet.
		 */
		if (plugins [plg] == NULL)
			continue;
		sysassert (plugins [plg] -> tcv_rcv != NULL, "tcv31");
    286a:	200a      	movs	r0, #10
    286c:	f7fe fcb4 	bl	11d8 <__pi_syserror>
    2870:	f8df 8074 	ldr.w	r8, [pc, #116]	; 28e8 <tcvphy_rcv+0x98>
		if ((dsp = plugins [plg] -> tcv_rcv (phy, p, len, &ses, &ap)) !=
    2874:	f10d 090c 	add.w	r9, sp, #12
    2878:	f108 0708 	add.w	r7, r8, #8
		if (plugins [plg] == NULL)
    287c:	683b      	ldr	r3, [r7, #0]
    287e:	46ba      	mov	sl, r7
    2880:	3f04      	subs	r7, #4
    2882:	b92b      	cbnz	r3, 2890 <tcvphy_rcv+0x40>
	for (plg = TCV_MAX_PLUGS-1; plg >= 0; plg--) {
    2884:	45d0      	cmp	r8, sl
    2886:	d1f9      	bne.n	287c <tcvphy_rcv+0x2c>
	if (dsp == TCV_DSP_PASS || dsp == TCV_DSP_DROP) {
		/*
		 * Either no one is claiming the packet or the claimant says
		 * we should drop it.
		 */
		return 0;
    2888:	2000      	movs	r0, #0
		return 0;

	memcpy ((char*)c, ((char*)p) + ap.head, len);

	return 1;
}
    288a:	b005      	add	sp, #20
    288c:	e8bd 8ff0 	ldmia.w	sp!, {r4, r5, r6, r7, r8, r9, sl, fp, pc}
		sysassert (plugins [plg] -> tcv_rcv != NULL, "tcv31");
    2890:	f8d3 b008 	ldr.w	fp, [r3, #8]
    2894:	f1bb 0f00 	cmp.w	fp, #0
    2898:	d101      	bne.n	289e <tcvphy_rcv+0x4e>
    289a:	4914      	ldr	r1, [pc, #80]	; (28ec <tcvphy_rcv+0x9c>)
    289c:	e7e5      	b.n	286a <tcvphy_rcv+0x1a>
		if ((dsp = plugins [plg] -> tcv_rcv (phy, p, len, &ses, &ap)) !=
    289e:	4631      	mov	r1, r6
    28a0:	4622      	mov	r2, r4
    28a2:	4628      	mov	r0, r5
    28a4:	f8cd 9000 	str.w	r9, [sp]
    28a8:	ab02      	add	r3, sp, #8
    28aa:	47d8      	blx	fp
    28ac:	4601      	mov	r1, r0
    28ae:	2800      	cmp	r0, #0
    28b0:	d0e8      	beq.n	2884 <tcvphy_rcv+0x34>
	if (dsp == TCV_DSP_PASS || dsp == TCV_DSP_DROP) {
    28b2:	2801      	cmp	r0, #1
    28b4:	d0e8      	beq.n	2888 <tcvphy_rcv+0x38>
	len -= (ap.head + ap.tail);
    28b6:	f8bd 200c 	ldrh.w	r2, [sp, #12]
    28ba:	f8bd 300e 	ldrh.w	r3, [sp, #14]
    28be:	441a      	add	r2, r3
    28c0:	1aa4      	subs	r4, r4, r2
	if ((c = tcvp_new (len, dsp, ses)) == NULL)
    28c2:	4620      	mov	r0, r4
    28c4:	9a02      	ldr	r2, [sp, #8]
    28c6:	f7ff ff67 	bl	2798 <tcvp_new>
    28ca:	2800      	cmp	r0, #0
    28cc:	d0dc      	beq.n	2888 <tcvphy_rcv+0x38>
	memcpy ((char*)c, ((char*)p) + ap.head, len);
    28ce:	f8bd 100c 	ldrh.w	r1, [sp, #12]
    28d2:	4622      	mov	r2, r4
    28d4:	4431      	add	r1, r6
    28d6:	f7ff fb36 	bl	1f46 <__pi_memcpy>
	return 1;
    28da:	2001      	movs	r0, #1
    28dc:	e7d5      	b.n	288a <tcvphy_rcv+0x3a>
    28de:	bf00      	nop
    28e0:	200006bc 			; <UNDEFINED> instruction: 0x200006bc
    28e4:	000053df 	ldrdeq	r5, [r0], -pc	; <UNPREDICTABLE>
    28e8:	200006d4 	ldrdcs	r0, [r0], -r4
    28ec:	000053e5 	andeq	r5, r0, r5, ror #7

000028f0 <tcvphy_get>:
 * Returns the packet pointer and its length.
 */
	qhead_t	*oq;
	hblock_t *b;

	verify_fph (phy, "tcv32");
    28f0:	2803      	cmp	r0, #3
__PUBLF (PicOSNode, address, tcvphy_get) (int phy, int *len) {
    28f2:	b508      	push	{r3, lr}
	verify_fph (phy, "tcv32");
    28f4:	d803      	bhi.n	28fe <tcvphy_get+0xe>
    28f6:	4b0b      	ldr	r3, [pc, #44]	; (2924 <tcvphy_get+0x34>)
    28f8:	f853 3020 	ldr.w	r3, [r3, r0, lsl #2]
    28fc:	b91b      	cbnz	r3, 2906 <tcvphy_get+0x16>
    28fe:	200a      	movs	r0, #10
    2900:	4909      	ldr	r1, [pc, #36]	; (2928 <tcvphy_get+0x38>)
    2902:	f7fe fc69 	bl	11d8 <__pi_syserror>

	oq = oqueues [phy];
    2906:	4b09      	ldr	r3, [pc, #36]	; (292c <tcvphy_get+0x3c>)
    2908:	f853 3020 	ldr.w	r3, [r3, r0, lsl #2]
	b = q_first (oq);
    290c:	6818      	ldr	r0, [r3, #0]
	if (q_end (b, oq)) {
    290e:	4283      	cmp	r3, r0
    2910:	d005      	beq.n	291e <tcvphy_get+0x2e>
		/* The queue is empty */
		return NULL;
	}

	*len = b->length;
    2912:	8903      	ldrh	r3, [r0, #8]
    2914:	600b      	str	r3, [r1, #0]
	deq (b);	// Dequeue the packet ...
    2916:	f7ff fd56 	bl	23c6 <deq>
	deqtm (b);	// ... and clear its timer
	return (address) (b + 1);
    291a:	300c      	adds	r0, #12
}
    291c:	bd08      	pop	{r3, pc}
		return NULL;
    291e:	2000      	movs	r0, #0
    2920:	e7fc      	b.n	291c <tcvphy_get+0x2c>
    2922:	bf00      	nop
    2924:	200006bc 			; <UNDEFINED> instruction: 0x200006bc
    2928:	000053eb 	andeq	r5, r0, fp, ror #7
    292c:	200006b0 			; <UNDEFINED> instruction: 0x200006b0

00002930 <tcvphy_top>:
 * Returns the pointer to the first outgoing packet.
 */
	qhead_t *oq;
	hblock_t *b;

	verify_fph (phy, "tcv33");
    2930:	2803      	cmp	r0, #3
__PUBLF (PicOSNode, address, tcvphy_top) (int phy) {
    2932:	b508      	push	{r3, lr}
	verify_fph (phy, "tcv33");
    2934:	d803      	bhi.n	293e <tcvphy_top+0xe>
    2936:	4b08      	ldr	r3, [pc, #32]	; (2958 <tcvphy_top+0x28>)
    2938:	f853 3020 	ldr.w	r3, [r3, r0, lsl #2]
    293c:	b91b      	cbnz	r3, 2946 <tcvphy_top+0x16>
    293e:	200a      	movs	r0, #10
    2940:	4906      	ldr	r1, [pc, #24]	; (295c <tcvphy_top+0x2c>)
    2942:	f7fe fc49 	bl	11d8 <__pi_syserror>

	oq = oqueues [phy];
    2946:	4b06      	ldr	r3, [pc, #24]	; (2960 <tcvphy_top+0x30>)
    2948:	f853 3020 	ldr.w	r3, [r3, r0, lsl #2]
	b = q_first (oq);
    294c:	6818      	ldr	r0, [r3, #0]
	if (q_end (b, oq))
    294e:	4283      	cmp	r3, r0
		return NULL;
    2950:	bf0c      	ite	eq
    2952:	2000      	moveq	r0, #0

	return (address)(b + 1);
    2954:	300c      	addne	r0, #12
}
    2956:	bd08      	pop	{r3, pc}
    2958:	200006bc 			; <UNDEFINED> instruction: 0x200006bc
    295c:	000053f1 	strdeq	r5, [r0], -r1
    2960:	200006b0 			; <UNDEFINED> instruction: 0x200006b0

00002964 <tcvphy_end>:

__PUBLF (PicOSNode, void, tcvphy_end) (address pkt) {
    2964:	b510      	push	{r4, lr}
/*
 * Marks the end of packet transmission
 */
	hblock_t *b = header (pkt);

	verify_plg (b, tcv_xmt, "tcv34");
    2966:	f810 3c01 	ldrb.w	r3, [r0, #-1]
	hblock_t *b = header (pkt);
    296a:	f1a0 040c 	sub.w	r4, r0, #12
	verify_plg (b, tcv_xmt, "tcv34");
    296e:	f3c3 0382 	ubfx	r3, r3, #2, #3
    2972:	2b02      	cmp	r3, #2
    2974:	d805      	bhi.n	2982 <tcvphy_end+0x1e>
    2976:	4a08      	ldr	r2, [pc, #32]	; (2998 <tcvphy_end+0x34>)
    2978:	f852 3023 	ldr.w	r3, [r2, r3, lsl #2]
    297c:	b10b      	cbz	r3, 2982 <tcvphy_end+0x1e>
    297e:	695b      	ldr	r3, [r3, #20]
    2980:	b91b      	cbnz	r3, 298a <tcvphy_end+0x26>
    2982:	200a      	movs	r0, #10
    2984:	4905      	ldr	r1, [pc, #20]	; (299c <tcvphy_end+0x38>)
    2986:	f7fe fc27 	bl	11d8 <__pi_syserror>
	dispose (b, plugins [b->attributes.b.plugin] ->
    298a:	4798      	blx	r3
    298c:	4601      	mov	r1, r0
    298e:	4620      	mov	r0, r4
		tcv_xmt (pkt));
}
    2990:	e8bd 4010 	ldmia.w	sp!, {r4, lr}
	dispose (b, plugins [b->attributes.b.plugin] ->
    2994:	f7ff bd2c 	b.w	23f0 <dispose>
    2998:	200006d4 	ldrdcs	r0, [r0], -r4
    299c:	000053f7 	strdeq	r5, [r0], -r7

000029a0 <tcv_init>:
	tcv_tservice = create TCVTimerService;
	tcv_tservice -> _pp_apid_ ();
#endif	/* __SMURPH__ */

#endif	/* TCV_TIMERS */
}
    29a0:	4770      	bx	lr

000029a2 <NmiSR>:
NmiSRHandler(void)
{
    //
    // Enter an infinite loop.
    //
    while(1)
    29a2:	e7fe      	b.n	29a2 <NmiSR>

000029a4 <FaultISR>:
FaultISRHandler(void)
{
    //
    // Enter an infinite loop.
    //
    while(1)
    29a4:	e7fe      	b.n	29a4 <FaultISR>

000029a6 <AONIntHandler>:
IntDefaultHandler(void)
{
    //
    // Go into an infinite loop.
    //
    while(1)
    29a6:	e7fe      	b.n	29a6 <AONIntHandler>

000029a8 <ResetISR>:
{
    29a8:	b508      	push	{r3, lr}
    SetupTrimDevice();
    29aa:	f001 fd1f 	bl	43ec <NOROM_SetupTrimDevice>
        *pui32Dest++ = *pui32Src++;
    29ae:	4b0d      	ldr	r3, [pc, #52]	; (29e4 <zero_loop+0x14>)
    29b0:	480d      	ldr	r0, [pc, #52]	; (29e8 <zero_loop+0x18>)
    29b2:	1cda      	adds	r2, r3, #3
    29b4:	1a12      	subs	r2, r2, r0
    29b6:	1ec1      	subs	r1, r0, #3
    29b8:	f022 0203 	bic.w	r2, r2, #3
    29bc:	4299      	cmp	r1, r3
    29be:	bf88      	it	hi
    29c0:	2200      	movhi	r2, #0
    29c2:	490a      	ldr	r1, [pc, #40]	; (29ec <zero_loop+0x1c>)
    29c4:	f002 fa1c 	bl	4e00 <memcpy>
    __asm("    ldr     r0, =_bss\n"
    29c8:	4809      	ldr	r0, [pc, #36]	; (29f0 <zero_loop+0x20>)
    29ca:	490a      	ldr	r1, [pc, #40]	; (29f4 <zero_loop+0x24>)
    29cc:	f04f 0200 	mov.w	r2, #0

000029d0 <zero_loop>:
    29d0:	4288      	cmp	r0, r1
    29d2:	bfb8      	it	lt
    29d4:	f840 2b04 	strlt.w	r2, [r0], #4
    29d8:	dbfa      	blt.n	29d0 <zero_loop>
   main();
    29da:	f7ff f905 	bl	1be8 <main>
    FaultISR();
    29de:	f7ff ffe1 	bl	29a4 <FaultISR>
}
    29e2:	bd08      	pop	{r3, pc}
    29e4:	2000010c 	andcs	r0, r0, ip, lsl #2
    29e8:	20000000 	andcs	r0, r0, r0
    29ec:	00005e00 	andeq	r5, r0, r0, lsl #28
    29f0:	2000010c 	andcs	r0, r0, ip, lsl #2
    29f4:	20000754 	andcs	r0, r0, r4, asr r7

000029f8 <get_byte>:

static word	left;

// ============================================================================

static byte get_byte () {
    29f8:	2308      	movs	r3, #8

	int i;
	byte b;

	for (b = 0, i = 0; i < 8; i++) {
    29fa:	2000      	movs	r0, #0
    HWREG( GPIO_BASE + GPIO_O_DOUTSET31_0 ) = ( 1 << dioNumber );
    29fc:	f44f 6180 	mov.w	r1, #1024	; 0x400
static byte get_byte () {
    2a00:	b510      	push	{r4, lr}
    return (( HWREG( GPIO_BASE + GPIO_O_DIN31_0 ) >> dioNumber ) & 1 );
    2a02:	4a08      	ldr	r2, [pc, #32]	; (2a24 <get_byte+0x2c>)
    2a04:	f8d2 40c0 	ldr.w	r4, [r2, #192]	; 0xc0
		b <<= 1;
    2a08:	0040      	lsls	r0, r0, #1
		if (ee_inp)
    2a0a:	05e4      	lsls	r4, r4, #23
		b <<= 1;
    2a0c:	b2c0      	uxtb	r0, r0
			b |= 1;
    2a0e:	bf48      	it	mi
    2a10:	f040 0001 	orrmi.w	r0, r0, #1
	for (b = 0, i = 0; i < 8; i++) {
    2a14:	3b01      	subs	r3, #1
